ARM GAS  C:\Users\lpar105\AppData\Local\Temp\ccxLV1qN.s 			page 1


   1              		.syntax unified
   2              		.cpu cortex-m3
   3              		.fpu softvfp
   4              		.eabi_attribute 20, 1
   5              		.eabi_attribute 21, 1
   6              		.eabi_attribute 23, 3
   7              		.eabi_attribute 24, 1
   8              		.eabi_attribute 25, 1
   9              		.eabi_attribute 26, 1
  10              		.eabi_attribute 30, 6
  11              		.eabi_attribute 34, 1
  12              		.eabi_attribute 18, 4
  13              		.thumb
  14              		.syntax unified
  15              		.file	"adcc.c"
  16              		.text
  17              	.Ltext0:
  18              		.cfi_sections	.debug_frame
  19              		.section	.text.updateHighCounts,"ax",%progbits
  20              		.align	2
  21              		.global	updateHighCounts
  22              		.thumb
  23              		.thumb_func
  24              		.type	updateHighCounts, %function
  25              	updateHighCounts:
  26              	.LFB64:
  27              		.file 1 "adcc.c"
   1:adcc.c        **** /* ========================================
   2:adcc.c        ****  *
   3:adcc.c        ****  * Copyright YOUR COMPANY, THE YEAR
   4:adcc.c        ****  * All Rights Reserved
   5:adcc.c        ****  * UNPUBLISHED, LICENSED SOFTWARE.
   6:adcc.c        ****  *
   7:adcc.c        ****  * CONFIDENTIAL AND PROPRIETARY INFORMATION
   8:adcc.c        ****  * WHICH IS THE PROPERTY OF your company.
   9:adcc.c        ****  *
  10:adcc.c        ****  * ========================================
  11:adcc.c        **** */
  12:adcc.c        **** 
  13:adcc.c        **** #include <project.h>
  14:adcc.c        **** 
  15:adcc.c        **** #include <stdio.h>
  16:adcc.c        **** 
  17:adcc.c        **** #include "adcc.h"
  18:adcc.c        **** 
  19:adcc.c        **** void updateHighCounts(int valuesLeftIntersection[1000], int valuesLeftLine[1000], int valuesMiddleL
  28              		.loc 1 19 0
  29              		.cfi_startproc
  30              		@ args = 36, pretend = 0, frame = 24
  31              		@ frame_needed = 1, uses_anonymous_args = 0
  32 0000 80B5     		push	{r7, lr}
  33              		.cfi_def_cfa_offset 8
  34              		.cfi_offset 7, -8
  35              		.cfi_offset 14, -4
  36 0002 86B0     		sub	sp, sp, #24
  37              		.cfi_def_cfa_offset 32
  38 0004 00AF     		add	r7, sp, #0
ARM GAS  C:\Users\lpar105\AppData\Local\Temp\ccxLV1qN.s 			page 2


  39              		.cfi_def_cfa_register 7
  40 0006 F860     		str	r0, [r7, #12]
  41 0008 B960     		str	r1, [r7, #8]
  42 000a 7A60     		str	r2, [r7, #4]
  43 000c 3B60     		str	r3, [r7]
  20:adcc.c        ****     LED_PIN_6_Write(1);
  44              		.loc 1 20 0
  45 000e 0120     		movs	r0, #1
  46 0010 FFF7FEFF 		bl	LED_PIN_6_Write
  47              	.LBB2:
  21:adcc.c        ****     for (int i = 0; i < ADC_COUNT; i++) {
  48              		.loc 1 21 0
  49 0014 0023     		movs	r3, #0
  50 0016 7B61     		str	r3, [r7, #20]
  51 0018 4DE0     		b	.L2
  52              	.L9:
  22:adcc.c        ****             
  23:adcc.c        ****             if (valuesLeftIntersection[i] > 3000) {
  53              		.loc 1 23 0
  54 001a 7B69     		ldr	r3, [r7, #20]
  55 001c 9B00     		lsls	r3, r3, #2
  56 001e FA68     		ldr	r2, [r7, #12]
  57 0020 1344     		add	r3, r3, r2
  58 0022 1B68     		ldr	r3, [r3]
  59 0024 40F6B832 		movw	r2, #3000
  60 0028 9342     		cmp	r3, r2
  61 002a 02DD     		ble	.L3
  24:adcc.c        ****               highCountLeftIntersection++;
  62              		.loc 1 24 0
  63 002c BB6A     		ldr	r3, [r7, #40]
  64 002e 0433     		adds	r3, r3, #4
  65 0030 BB62     		str	r3, [r7, #40]
  66              	.L3:
  25:adcc.c        **** 
  26:adcc.c        ****             }
  27:adcc.c        **** 
  28:adcc.c        ****             if (valuesLeftLine[i] > 3000) {
  67              		.loc 1 28 0
  68 0032 7B69     		ldr	r3, [r7, #20]
  69 0034 9B00     		lsls	r3, r3, #2
  70 0036 BA68     		ldr	r2, [r7, #8]
  71 0038 1344     		add	r3, r3, r2
  72 003a 1B68     		ldr	r3, [r3]
  73 003c 40F6B832 		movw	r2, #3000
  74 0040 9342     		cmp	r3, r2
  75 0042 02DD     		ble	.L4
  29:adcc.c        ****               highCountLeftLine++;
  76              		.loc 1 29 0
  77 0044 FB6A     		ldr	r3, [r7, #44]
  78 0046 0433     		adds	r3, r3, #4
  79 0048 FB62     		str	r3, [r7, #44]
  80              	.L4:
  30:adcc.c        **** 
  31:adcc.c        ****             }
  32:adcc.c        **** 
  33:adcc.c        ****             if (valuesMiddleLine[i] > 3000) {
  81              		.loc 1 33 0
ARM GAS  C:\Users\lpar105\AppData\Local\Temp\ccxLV1qN.s 			page 3


  82 004a 7B69     		ldr	r3, [r7, #20]
  83 004c 9B00     		lsls	r3, r3, #2
  84 004e 7A68     		ldr	r2, [r7, #4]
  85 0050 1344     		add	r3, r3, r2
  86 0052 1B68     		ldr	r3, [r3]
  87 0054 40F6B832 		movw	r2, #3000
  88 0058 9342     		cmp	r3, r2
  89 005a 02DD     		ble	.L5
  34:adcc.c        ****               highCountMiddleLine++;
  90              		.loc 1 34 0
  91 005c 3B6B     		ldr	r3, [r7, #48]
  92 005e 0433     		adds	r3, r3, #4
  93 0060 3B63     		str	r3, [r7, #48]
  94              	.L5:
  35:adcc.c        **** 
  36:adcc.c        ****             }
  37:adcc.c        **** 
  38:adcc.c        ****             if (valuesTurnComplete[i] > 3000) {
  95              		.loc 1 38 0
  96 0062 7B69     		ldr	r3, [r7, #20]
  97 0064 9B00     		lsls	r3, r3, #2
  98 0066 3A68     		ldr	r2, [r7]
  99 0068 1344     		add	r3, r3, r2
 100 006a 1B68     		ldr	r3, [r3]
 101 006c 40F6B832 		movw	r2, #3000
 102 0070 9342     		cmp	r3, r2
 103 0072 02DD     		ble	.L6
  39:adcc.c        ****               highCountTurnComplete++;
 104              		.loc 1 39 0
 105 0074 7B6B     		ldr	r3, [r7, #52]
 106 0076 0433     		adds	r3, r3, #4
 107 0078 7B63     		str	r3, [r7, #52]
 108              	.L6:
  40:adcc.c        **** 
  41:adcc.c        ****             }
  42:adcc.c        **** 
  43:adcc.c        ****             if (valuesRightLine[i] > 3000) {
 109              		.loc 1 43 0
 110 007a 7B69     		ldr	r3, [r7, #20]
 111 007c 9B00     		lsls	r3, r3, #2
 112 007e 3A6A     		ldr	r2, [r7, #32]
 113 0080 1344     		add	r3, r3, r2
 114 0082 1B68     		ldr	r3, [r3]
 115 0084 40F6B832 		movw	r2, #3000
 116 0088 9342     		cmp	r3, r2
 117 008a 02DD     		ble	.L7
  44:adcc.c        ****               highCountRightLine++;
 118              		.loc 1 44 0
 119 008c BB6B     		ldr	r3, [r7, #56]
 120 008e 0433     		adds	r3, r3, #4
 121 0090 BB63     		str	r3, [r7, #56]
 122              	.L7:
  45:adcc.c        **** 
  46:adcc.c        ****             }
  47:adcc.c        **** 
  48:adcc.c        ****             if (valuesRightIntersection[i] > 3000) {
 123              		.loc 1 48 0
ARM GAS  C:\Users\lpar105\AppData\Local\Temp\ccxLV1qN.s 			page 4


 124 0092 7B69     		ldr	r3, [r7, #20]
 125 0094 9B00     		lsls	r3, r3, #2
 126 0096 7A6A     		ldr	r2, [r7, #36]
 127 0098 1344     		add	r3, r3, r2
 128 009a 1B68     		ldr	r3, [r3]
 129 009c 40F6B832 		movw	r2, #3000
 130 00a0 9342     		cmp	r3, r2
 131 00a2 02DD     		ble	.L8
  49:adcc.c        ****               highCountRightIntersection++;
 132              		.loc 1 49 0
 133 00a4 FB6B     		ldr	r3, [r7, #60]
 134 00a6 0433     		adds	r3, r3, #4
 135 00a8 FB63     		str	r3, [r7, #60]
 136              	.L8:
  50:adcc.c        **** 
  51:adcc.c        ****             }
  52:adcc.c        **** LED_PIN_6_Write(0);
 137              		.loc 1 52 0 discriminator 2
 138 00aa 0020     		movs	r0, #0
 139 00ac FFF7FEFF 		bl	LED_PIN_6_Write
  21:adcc.c        ****             
 140              		.loc 1 21 0 discriminator 2
 141 00b0 7B69     		ldr	r3, [r7, #20]
 142 00b2 0133     		adds	r3, r3, #1
 143 00b4 7B61     		str	r3, [r7, #20]
 144              	.L2:
  21:adcc.c        ****             
 145              		.loc 1 21 0 is_stmt 0 discriminator 1
 146 00b6 7A69     		ldr	r2, [r7, #20]
 147 00b8 3B6C     		ldr	r3, [r7, #64]
 148 00ba 9A42     		cmp	r2, r3
 149 00bc ADDB     		blt	.L9
 150              	.LBE2:
  53:adcc.c        ****           }
  54:adcc.c        **** }
 151              		.loc 1 54 0 is_stmt 1
 152 00be 00BF     		nop
 153 00c0 1837     		adds	r7, r7, #24
 154              		.cfi_def_cfa_offset 8
 155 00c2 BD46     		mov	sp, r7
 156              		.cfi_def_cfa_register 13
 157              		@ sp needed
 158 00c4 80BD     		pop	{r7, pc}
 159              		.cfi_endproc
 160              	.LFE64:
 161              		.size	updateHighCounts, .-updateHighCounts
 162 00c6 00BF     		.text
 163              	.Letext0:
 164              		.file 2 "c:\\program files (x86)\\cypress\\psoc creator\\4.2\\psoc creator\\import\\gnu\\arm\\5.4.
 165              		.file 3 "c:\\program files (x86)\\cypress\\psoc creator\\4.2\\psoc creator\\import\\gnu\\arm\\5.4.
 166              		.file 4 "Generated_Source\\PSoC5/core_cm3.h"