ARM GAS  C:\Users\hsal869\AppData\Local\Temp\ccuL1rS3.s 			page 1


   1              		.syntax unified
   2              		.cpu cortex-m3
   3              		.fpu softvfp
   4              		.eabi_attribute 20, 1
   5              		.eabi_attribute 21, 1
   6              		.eabi_attribute 23, 3
   7              		.eabi_attribute 24, 1
   8              		.eabi_attribute 25, 1
   9              		.eabi_attribute 26, 1
  10              		.eabi_attribute 30, 6
  11              		.eabi_attribute 34, 1
  12              		.eabi_attribute 18, 4
  13              		.thumb
  14              		.syntax unified
  15              		.file	"main.c"
  16              		.text
  17              	.Ltext0:
  18              		.cfi_sections	.debug_frame
  19              		.global	ts
  20              		.bss
  21              		.type	ts, %object
  22              		.size	ts, 1
  23              	ts:
  24 0000 00       		.space	1
  25              		.global	ts_enc
  26 0001 00       		.align	1
  27              		.type	ts_enc, %object
  28              		.size	ts_enc, 2
  29              	ts_enc:
  30 0002 0000     		.space	2
  31              		.global	ts_update
  32              		.align	1
  33              		.type	ts_update, %object
  34              		.size	ts_update, 2
  35              	ts_update:
  36 0004 0000     		.space	2
  37              		.global	ts_speed
  38              		.align	1
  39              		.type	ts_speed, %object
  40              		.size	ts_speed, 2
  41              	ts_speed:
  42 0006 0000     		.space	2
  43              		.global	ts_display
  44              		.align	1
  45              		.type	ts_display, %object
  46              		.size	ts_display, 2
  47              	ts_display:
  48 0008 0000     		.space	2
  49              		.global	flag_ts_enc
  50              		.type	flag_ts_enc, %object
  51              		.size	flag_ts_enc, 1
  52              	flag_ts_enc:
  53 000a 00       		.space	1
  54              		.global	flag_ts_update
  55              		.type	flag_ts_update, %object
  56              		.size	flag_ts_update, 1
  57              	flag_ts_update:
ARM GAS  C:\Users\hsal869\AppData\Local\Temp\ccuL1rS3.s 			page 2


  58 000b 00       		.space	1
  59              		.global	flag_ts_speed
  60              		.type	flag_ts_speed, %object
  61              		.size	flag_ts_speed, 1
  62              	flag_ts_speed:
  63 000c 00       		.space	1
  64              		.global	flag_ts_display
  65              		.type	flag_ts_display, %object
  66              		.size	flag_ts_display, 1
  67              	flag_ts_display:
  68 000d 00       		.space	1
  69              		.global	flag_rx
  70              		.type	flag_rx, %object
  71              		.size	flag_rx, 1
  72              	flag_rx:
  73 000e 00       		.space	1
  74              		.global	flag_packet
  75              		.type	flag_packet, %object
  76              		.size	flag_packet, 1
  77              	flag_packet:
  78 000f 00       		.space	1
  79              		.global	flag_KB_string
  80              		.type	flag_KB_string, %object
  81              		.size	flag_KB_string, 1
  82              	flag_KB_string:
  83 0010 00       		.space	1
  84              		.global	dataready_flag
  85              		.type	dataready_flag, %object
  86              		.size	dataready_flag, 1
  87              	dataready_flag:
  88 0011 00       		.space	1
  89              		.global	flag_rf_transmission_active
  90              		.data
  91              		.type	flag_rf_transmission_active, %object
  92              		.size	flag_rf_transmission_active, 1
  93              	flag_rf_transmission_active:
  94 0000 0A       		.byte	10
  95              		.global	displaystring
  96 0001 000000   		.align	2
  97              		.type	displaystring, %object
  98              		.size	displaystring, 64
  99              	displaystring:
 100 0004 43533330 		.ascii	"CS301 2016\012\000"
 100      31203230 
 100      31360A00 
 101 0010 00000000 		.space	52
 101      00000000 
 101      00000000 
 101      00000000 
 101      00000000 
 102              		.comm	line,64,4
 103              		.comm	entry,64,4
 104              		.comm	usbBuffer,64,4
 105              		.comm	system_state,32,4
 106              		.global	TARGET_SPEED
 107              		.align	2
 108              		.type	TARGET_SPEED, %object
ARM GAS  C:\Users\hsal869\AppData\Local\Temp\ccuL1rS3.s 			page 3


 109              		.size	TARGET_SPEED, 4
 110              	TARGET_SPEED:
 111 0044 0A000000 		.word	10
 112              		.global	restoring
 113              		.align	2
 114              		.type	restoring, %object
 115              		.size	restoring, 4
 116              	restoring:
 117 0048 1E000000 		.word	30
 118              		.global	turningDirection
 119              		.bss
 120 0012 0000     		.align	2
 121              		.type	turningDirection, %object
 122              		.size	turningDirection, 4
 123              	turningDirection:
 124 0014 00000000 		.space	4
 125              		.global	turningCount
 126              		.data
 127              		.align	2
 128              		.type	turningCount, %object
 129              		.size	turningCount, 4
 130              	turningCount:
 131 004c 1E000000 		.word	30
 132              		.global	shouldUpdate
 133              		.align	2
 134              		.type	shouldUpdate, %object
 135              		.size	shouldUpdate, 4
 136              	shouldUpdate:
 137 0050 01000000 		.word	1
 138              		.global	dotsTravelled
 139              		.bss
 140              		.align	2
 141              		.type	dotsTravelled, %object
 142              		.size	dotsTravelled, 4
 143              	dotsTravelled:
 144 0018 00000000 		.space	4
 145              		.global	flag
 146              		.align	2
 147              		.type	flag, %object
 148              		.size	flag, 4
 149              	flag:
 150 001c 00000000 		.space	4
 151              		.comm	valuesLeftIntersection,4000,4
 152              		.comm	valuesLeftLine,4000,4
 153              		.comm	valuesMiddleLine,4000,4
 154              		.comm	valuesTurnComplete,4000,4
 155              		.comm	valuesRightLine,4000,4
 156              		.comm	valuesRightIntersection,4000,4
 157              		.global	count
 158              		.align	2
 159              		.type	count, %object
 160              		.size	count, 4
 161              	count:
 162 0020 00000000 		.space	4
 163              		.global	turningLeft
 164              		.align	2
 165              		.type	turningLeft, %object
ARM GAS  C:\Users\hsal869\AppData\Local\Temp\ccuL1rS3.s 			page 4


 166              		.size	turningLeft, 4
 167              	turningLeft:
 168 0024 00000000 		.space	4
 169              		.global	turningRight
 170              		.align	2
 171              		.type	turningRight, %object
 172              		.size	turningRight, 4
 173              	turningRight:
 174 0028 00000000 		.space	4
 175              		.global	lastVeerDirection
 176              		.align	2
 177              		.type	lastVeerDirection, %object
 178              		.size	lastVeerDirection, 4
 179              	lastVeerDirection:
 180 002c 00000000 		.space	4
 181              		.global	motorFlag
 182              		.align	2
 183              		.type	motorFlag, %object
 184              		.size	motorFlag, 4
 185              	motorFlag:
 186 0030 00000000 		.space	4
 187              		.global	step
 188              		.align	2
 189              		.type	step, %object
 190              		.size	step, 4
 191              	step:
 192 0034 00000000 		.space	4
 193              		.comm	v1L,4,4
 194              		.comm	v2L,4,4
 195              		.comm	v1R,4,4
 196              		.comm	v2R,4,4
 197              		.comm	numRotationsL,4,4
 198              		.comm	numRotationsR,4,4
 199              		.comm	turnCount,4,4
 200              		.global	distanceTravelled
 201              		.align	2
 202              		.type	distanceTravelled, %object
 203              		.size	distanceTravelled, 4
 204              	distanceTravelled:
 205 0038 00000000 		.space	4
 206              		.global	distancePerSecondL
 207              		.align	2
 208              		.type	distancePerSecondL, %object
 209              		.size	distancePerSecondL, 4
 210              	distancePerSecondL:
 211 003c 00000000 		.space	4
 212              		.global	distancePerSecondR
 213              		.align	2
 214              		.type	distancePerSecondR, %object
 215              		.size	distancePerSecondR, 4
 216              	distancePerSecondR:
 217 0040 00000000 		.space	4
 218              		.global	prevTurnState
 219              		.align	2
 220              		.type	prevTurnState, %object
 221              		.size	prevTurnState, 4
 222              	prevTurnState:
ARM GAS  C:\Users\hsal869\AppData\Local\Temp\ccuL1rS3.s 			page 5


 223 0044 00000000 		.space	4
 224              		.global	turnState
 225              		.align	2
 226              		.type	turnState, %object
 227              		.size	turnState, 4
 228              	turnState:
 229 0048 00000000 		.space	4
 230              		.global	turnEnable
 231              		.align	2
 232              		.type	turnEnable, %object
 233              		.size	turnEnable, 4
 234              	turnEnable:
 235 004c 00000000 		.space	4
 236              		.global	turnTimer
 237              		.align	2
 238              		.type	turnTimer, %object
 239              		.size	turnTimer, 4
 240              	turnTimer:
 241 0050 00000000 		.space	4
 242              		.global	lastAdjustDirection
 243              		.align	2
 244              		.type	lastAdjustDirection, %object
 245              		.size	lastAdjustDirection, 4
 246              	lastAdjustDirection:
 247 0054 00000000 		.space	4
 248              		.section	.text.eoc,"ax",%progbits
 249              		.align	2
 250              		.global	eoc
 251              		.thumb
 252              		.thumb_func
 253              		.type	eoc, %function
 254              	eoc:
 255              	.LFB64:
 256              		.file 1 "main.c"
   1:main.c        **** /* ========================================
   2:main.c        ****  * Fully working code: 
   3:main.c        ****  * PWM      : 
   4:main.c        ****  * Encoder  : 
   5:main.c        ****  * ADC      :
   6:main.c        ****  * USB      : port displays speed and position.
   7:main.c        ****  * CMD: "PW xx"
   8:main.c        ****  * Copyright Univ of Auckland, 2016
   9:main.c        ****  * All Rights Reserved
  10:main.c        ****  * UNPUBLISHED, LICENSED SOFTWARE.
  11:main.c        ****  *
  12:main.c        ****  * CONFIDENTIAL AND PROPRIETARY INFORMATION
  13:main.c        ****  * WHICH IS THE PROPERTY OF Univ of Auckland.
  14:main.c        ****  *
  15:main.c        ****  * ========================================
  16:main.c        ****  */
  17:main.c        **** #include <stdio.h>
  18:main.c        **** 
  19:main.c        **** #include <string.h>
  20:main.c        **** 
  21:main.c        **** #include <stdlib.h>
  22:main.c        **** 
  23:main.c        **** #include <project.h>
ARM GAS  C:\Users\hsal869\AppData\Local\Temp\ccuL1rS3.s 			page 6


  24:main.c        ****  //* ========================================
  25:main.c        **** 
  26:main.c        **** #include "defines.h"
  27:main.c        **** 
  28:main.c        **** #include "motors.h"
  29:main.c        **** 
  30:main.c        **** #include "vars.h"
  31:main.c        **** 
  32:main.c        **** #define ADC_COUNT 1000
  33:main.c        **** #define L_INT_BLACK highCountLeftIntersection < 150
  34:main.c        **** #define R_INT_BLACK highCountRightIntersection < 150
  35:main.c        **** #define L_LINE_BLACK highCountLeftLine < 150
  36:main.c        **** #define R_LINE_BLACK highCountRightLine < 150
  37:main.c        **** #define M_LINE_BLACK highCountMiddleLine < 150
  38:main.c        **** #define TC_BLACK highCountTurnComplete < 150
  39:main.c        **** int TARGET_SPEED = 10;
  40:main.c        **** int restoring = 30;
  41:main.c        **** int turningDirection = 0;
  42:main.c        **** int turningCount = 30;
  43:main.c        **** volatile int shouldUpdate = 1;
  44:main.c        **** #define MOVE_DISTANCE 999999999 //cm
  45:main.c        **** volatile int dotsTravelled = 0;
  46:main.c        **** //* ========================================
  47:main.c        **** void usbPutString(char * s);
  48:main.c        **** void usbPutChar(char c);
  49:main.c        **** void printSensorDebug(int highCountLeftIntersection, int highCountLeftLine, int highCountMiddleLine
  50:main.c        **** //* ========================================
  51:main.c        **** 
  52:main.c        **** volatile int flag = 0;
  53:main.c        **** volatile int valuesLeftIntersection[ADC_COUNT];
  54:main.c        **** volatile int valuesLeftLine[ADC_COUNT];
  55:main.c        **** volatile int valuesMiddleLine[ADC_COUNT];
  56:main.c        **** volatile int valuesTurnComplete[ADC_COUNT];
  57:main.c        **** volatile int valuesRightLine[ADC_COUNT];
  58:main.c        **** volatile int valuesRightIntersection[ADC_COUNT];
  59:main.c        **** volatile int count = 0;
  60:main.c        **** volatile int turningLeft = 0;
  61:main.c        **** volatile int turningRight = 0;
  62:main.c        **** volatile int lastVeerDirection = 0;
  63:main.c        **** 
  64:main.c        **** volatile int motorFlag = 0;
  65:main.c        **** volatile int step = 0; // are we on first measuring step or second step?
  66:main.c        **** volatile int v1L; // allocating storage for measure number of holes (ahead) - LEFT WHEEL
  67:main.c        **** volatile int v2L; // allocating storage for measure number of holes (behind) - LEFT WHEEL
  68:main.c        **** volatile int v1R; // allocating storage for measure number of holes (ahead) - RIGHT WHEEL
  69:main.c        **** volatile int v2R; // allocating storage for measure number of holes (behind) - RIGHT WHEEL
  70:main.c        **** volatile int numRotationsL; //
  71:main.c        **** volatile int numRotationsR; //
  72:main.c        **** volatile int turnCount;
  73:main.c        **** volatile int distanceTravelled = 0;
  74:main.c        **** volatile int distancePerSecondL = 0;
  75:main.c        **** volatile int distancePerSecondR = 0;
  76:main.c        **** volatile int prevTurnState = 0;
  77:main.c        **** volatile int turnState = 0;
  78:main.c        **** volatile int turnEnable = 0;
  79:main.c        **** volatile int turnTimer = 0;
  80:main.c        **** int lastAdjustDirection = 0;
ARM GAS  C:\Users\hsal869\AppData\Local\Temp\ccuL1rS3.s 			page 7


  81:main.c        **** 
  82:main.c        **** CY_ISR(eoc) {
 257              		.loc 1 82 0
 258              		.cfi_startproc
 259              		@ args = 0, pretend = 0, frame = 0
 260              		@ frame_needed = 1, uses_anonymous_args = 0
 261              		@ link register save eliminated.
 262 0000 80B4     		push	{r7}
 263              		.cfi_def_cfa_offset 4
 264              		.cfi_offset 7, -4
 265 0002 00AF     		add	r7, sp, #0
 266              		.cfi_def_cfa_register 7
  83:main.c        ****   flag = 1;
 267              		.loc 1 83 0
 268 0004 034B     		ldr	r3, .L2
 269 0006 0122     		movs	r2, #1
 270 0008 1A60     		str	r2, [r3]
  84:main.c        **** }
 271              		.loc 1 84 0
 272 000a 00BF     		nop
 273 000c BD46     		mov	sp, r7
 274              		.cfi_def_cfa_register 13
 275              		@ sp needed
 276 000e 80BC     		pop	{r7}
 277              		.cfi_restore 7
 278              		.cfi_def_cfa_offset 0
 279 0010 7047     		bx	lr
 280              	.L3:
 281 0012 00BF     		.align	2
 282              	.L2:
 283 0014 00000000 		.word	flag
 284              		.cfi_endproc
 285              	.LFE64:
 286              		.size	eoc, .-eoc
 287              		.section	.text.MyISR,"ax",%progbits
 288              		.align	2
 289              		.global	MyISR
 290              		.thumb
 291              		.thumb_func
 292              		.type	MyISR, %function
 293              	MyISR:
 294              	.LFB65:
  85:main.c        **** 
  86:main.c        **** CY_ISR(MyISR) {
 295              		.loc 1 86 0
 296              		.cfi_startproc
 297              		@ args = 0, pretend = 0, frame = 0
 298              		@ frame_needed = 1, uses_anonymous_args = 0
 299              		@ link register save eliminated.
 300 0000 80B4     		push	{r7}
 301              		.cfi_def_cfa_offset 4
 302              		.cfi_offset 7, -4
 303 0002 00AF     		add	r7, sp, #0
 304              		.cfi_def_cfa_register 7
  87:main.c        ****   motorFlag = 1;
 305              		.loc 1 87 0
 306 0004 034B     		ldr	r3, .L5
ARM GAS  C:\Users\hsal869\AppData\Local\Temp\ccuL1rS3.s 			page 8


 307 0006 0122     		movs	r2, #1
 308 0008 1A60     		str	r2, [r3]
  88:main.c        **** }
 309              		.loc 1 88 0
 310 000a 00BF     		nop
 311 000c BD46     		mov	sp, r7
 312              		.cfi_def_cfa_register 13
 313              		@ sp needed
 314 000e 80BC     		pop	{r7}
 315              		.cfi_restore 7
 316              		.cfi_def_cfa_offset 0
 317 0010 7047     		bx	lr
 318              	.L6:
 319 0012 00BF     		.align	2
 320              	.L5:
 321 0014 00000000 		.word	motorFlag
 322              		.cfi_endproc
 323              	.LFE65:
 324              		.size	MyISR, .-MyISR
 325              		.section	.text.main,"ax",%progbits
 326              		.align	2
 327              		.global	main
 328              		.thumb
 329              		.thumb_func
 330              		.type	main, %function
 331              	main:
 332              	.LFB66:
  89:main.c        **** 
  90:main.c        **** int main() {
 333              		.loc 1 90 0
 334              		.cfi_startproc
 335              		@ args = 0, pretend = 0, frame = 32
 336              		@ frame_needed = 1, uses_anonymous_args = 0
 337 0000 90B5     		push	{r4, r7, lr}
 338              		.cfi_def_cfa_offset 12
 339              		.cfi_offset 4, -12
 340              		.cfi_offset 7, -8
 341              		.cfi_offset 14, -4
 342 0002 89B0     		sub	sp, sp, #36
 343              		.cfi_def_cfa_offset 48
 344 0004 00AF     		add	r7, sp, #0
 345              		.cfi_def_cfa_register 7
  91:main.c        **** 
  92:main.c        ****   // --------------------------------    
  93:main.c        ****   // ----- INITIALIZATIONS ----------
  94:main.c        ****   CYGlobalIntEnable;
 346              		.loc 1 94 0
 347              		.syntax unified
 348              	@ 94 "main.c" 1
 349 0006 62B6     		CPSIE   i
 350              	@ 0 "" 2
  95:main.c        **** 
  96:main.c        ****   // ------USB SETUP ----------------    
  97:main.c        **** 
  98:main.c        ****   USBUART_Start(0, USBUART_5V_OPERATION);
 351              		.loc 1 98 0
 352              		.thumb
ARM GAS  C:\Users\hsal869\AppData\Local\Temp\ccuL1rS3.s 			page 9


 353              		.syntax unified
 354 0008 0121     		movs	r1, #1
 355 000a 0020     		movs	r0, #0
 356 000c FFF7FEFF 		bl	USBUART_Start
  99:main.c        ****   UART_Start();
 357              		.loc 1 99 0
 358 0010 FFF7FEFF 		bl	UART_Start
 100:main.c        **** 
 101:main.c        ****   QuadDec_M1_Start();
 359              		.loc 1 101 0
 360 0014 FFF7FEFF 		bl	QuadDec_M1_Start
 102:main.c        ****   QuadDec_M2_Start();
 361              		.loc 1 102 0
 362 0018 FFF7FEFF 		bl	QuadDec_M2_Start
 103:main.c        **** 
 104:main.c        ****   isr_TS_StartEx(MyISR);
 363              		.loc 1 104 0
 364 001c AC48     		ldr	r0, .L44
 365 001e FFF7FEFF 		bl	isr_TS_StartEx
 105:main.c        **** 
 106:main.c        ****   RF_BT_SELECT_Write(1);
 366              		.loc 1 106 0
 367 0022 0120     		movs	r0, #1
 368 0024 FFF7FEFF 		bl	RF_BT_SELECT_Write
 107:main.c        **** 
 108:main.c        ****   ADC_Start();
 369              		.loc 1 108 0
 370 0028 FFF7FEFF 		bl	ADC_Start
 109:main.c        ****   ADC_StartConvert();
 371              		.loc 1 109 0
 372 002c FFF7FEFF 		bl	ADC_StartConvert
 110:main.c        ****   eoc_StartEx(eoc);
 373              		.loc 1 110 0
 374 0030 A848     		ldr	r0, .L44+4
 375 0032 FFF7FEFF 		bl	eoc_StartEx
 111:main.c        **** 
 112:main.c        ****   initMotors();
 376              		.loc 1 112 0
 377 0036 FFF7FEFF 		bl	initMotors
 113:main.c        **** 
 114:main.c        ****   stop();
 378              		.loc 1 114 0
 379 003a FFF7FEFF 		bl	stop
 115:main.c        **** 
 116:main.c        ****   isr_TS_StartEx(MyISR);
 380              		.loc 1 116 0
 381 003e A448     		ldr	r0, .L44
 382 0040 FFF7FEFF 		bl	isr_TS_StartEx
 117:main.c        ****   Timer_TS_Start();
 383              		.loc 1 117 0
 384 0044 FFF7FEFF 		bl	Timer_TS_Start
 385              	.L43:
 118:main.c        **** 
 119:main.c        ****   for (;;) {
 120:main.c        **** 
 121:main.c        ****     if (distanceTravelled > MOVE_DISTANCE) {
 386              		.loc 1 121 0
ARM GAS  C:\Users\hsal869\AppData\Local\Temp\ccuL1rS3.s 			page 10


 387 0048 A34B     		ldr	r3, .L44+8
 388 004a 1B68     		ldr	r3, [r3]
 389 004c A34A     		ldr	r2, .L44+12
 390 004e 9342     		cmp	r3, r2
 391 0050 02DD     		ble	.L8
 122:main.c        ****       stop();
 392              		.loc 1 122 0
 393 0052 FFF7FEFF 		bl	stop
 394 0056 F7E7     		b	.L43
 395              	.L8:
 123:main.c        ****     } else {
 124:main.c        **** 
 125:main.c        ****       LED_PIN_4_Write(0);
 396              		.loc 1 125 0
 397 0058 0020     		movs	r0, #0
 398 005a FFF7FEFF 		bl	LED_PIN_4_Write
 126:main.c        ****       if (flag == 1) {
 399              		.loc 1 126 0
 400 005e A04B     		ldr	r3, .L44+16
 401 0060 1B68     		ldr	r3, [r3]
 402 0062 012B     		cmp	r3, #1
 403 0064 F0D1     		bne	.L43
 127:main.c        **** 
 128:main.c        ****         ADC_IRQ_Disable();
 404              		.loc 1 128 0
 405 0066 FFF7FEFF 		bl	ADC_IRQ_Disable
 129:main.c        ****         valuesLeftIntersection[count] = ADC_GetResult16(0);
 406              		.loc 1 129 0
 407 006a 9E4B     		ldr	r3, .L44+20
 408 006c 1C68     		ldr	r4, [r3]
 409 006e 0020     		movs	r0, #0
 410 0070 FFF7FEFF 		bl	ADC_GetResult16
 411 0074 0346     		mov	r3, r0
 412 0076 1A46     		mov	r2, r3
 413 0078 9B4B     		ldr	r3, .L44+24
 414 007a 43F82420 		str	r2, [r3, r4, lsl #2]
 130:main.c        ****         valuesLeftLine[count] = ADC_GetResult16(1);
 415              		.loc 1 130 0
 416 007e 994B     		ldr	r3, .L44+20
 417 0080 1C68     		ldr	r4, [r3]
 418 0082 0120     		movs	r0, #1
 419 0084 FFF7FEFF 		bl	ADC_GetResult16
 420 0088 0346     		mov	r3, r0
 421 008a 1A46     		mov	r2, r3
 422 008c 974B     		ldr	r3, .L44+28
 423 008e 43F82420 		str	r2, [r3, r4, lsl #2]
 131:main.c        ****         valuesMiddleLine[count] = ADC_GetResult16(2);
 424              		.loc 1 131 0
 425 0092 944B     		ldr	r3, .L44+20
 426 0094 1C68     		ldr	r4, [r3]
 427 0096 0220     		movs	r0, #2
 428 0098 FFF7FEFF 		bl	ADC_GetResult16
 429 009c 0346     		mov	r3, r0
 430 009e 1A46     		mov	r2, r3
 431 00a0 934B     		ldr	r3, .L44+32
 432 00a2 43F82420 		str	r2, [r3, r4, lsl #2]
 132:main.c        ****         valuesTurnComplete[count] = ADC_GetResult16(3);
ARM GAS  C:\Users\hsal869\AppData\Local\Temp\ccuL1rS3.s 			page 11


 433              		.loc 1 132 0
 434 00a6 8F4B     		ldr	r3, .L44+20
 435 00a8 1C68     		ldr	r4, [r3]
 436 00aa 0320     		movs	r0, #3
 437 00ac FFF7FEFF 		bl	ADC_GetResult16
 438 00b0 0346     		mov	r3, r0
 439 00b2 1A46     		mov	r2, r3
 440 00b4 8F4B     		ldr	r3, .L44+36
 441 00b6 43F82420 		str	r2, [r3, r4, lsl #2]
 133:main.c        ****         valuesRightLine[count] = ADC_GetResult16(4);
 442              		.loc 1 133 0
 443 00ba 8A4B     		ldr	r3, .L44+20
 444 00bc 1C68     		ldr	r4, [r3]
 445 00be 0420     		movs	r0, #4
 446 00c0 FFF7FEFF 		bl	ADC_GetResult16
 447 00c4 0346     		mov	r3, r0
 448 00c6 1A46     		mov	r2, r3
 449 00c8 8B4B     		ldr	r3, .L44+40
 450 00ca 43F82420 		str	r2, [r3, r4, lsl #2]
 134:main.c        ****         valuesRightIntersection[count] = ADC_GetResult16(5);
 451              		.loc 1 134 0
 452 00ce 854B     		ldr	r3, .L44+20
 453 00d0 1C68     		ldr	r4, [r3]
 454 00d2 0520     		movs	r0, #5
 455 00d4 FFF7FEFF 		bl	ADC_GetResult16
 456 00d8 0346     		mov	r3, r0
 457 00da 1A46     		mov	r2, r3
 458 00dc 874B     		ldr	r3, .L44+44
 459 00de 43F82420 		str	r2, [r3, r4, lsl #2]
 135:main.c        **** 
 136:main.c        ****         count++;
 460              		.loc 1 136 0
 461 00e2 804B     		ldr	r3, .L44+20
 462 00e4 1B68     		ldr	r3, [r3]
 463 00e6 0133     		adds	r3, r3, #1
 464 00e8 7E4A     		ldr	r2, .L44+20
 465 00ea 1360     		str	r3, [r2]
 137:main.c        ****         if (count == ADC_COUNT) {
 466              		.loc 1 137 0
 467 00ec 7D4B     		ldr	r3, .L44+20
 468 00ee 1B68     		ldr	r3, [r3]
 469 00f0 B3F57A7F 		cmp	r3, #1000
 470 00f4 40F06781 		bne	.L10
 471              	.LBB2:
 138:main.c        ****           LED_PIN_4_Write(1);
 472              		.loc 1 138 0
 473 00f8 0120     		movs	r0, #1
 474 00fa FFF7FEFF 		bl	LED_PIN_4_Write
 139:main.c        ****           count = 0;
 475              		.loc 1 139 0
 476 00fe 794B     		ldr	r3, .L44+20
 477 0100 0022     		movs	r2, #0
 478 0102 1A60     		str	r2, [r3]
 140:main.c        ****           int highCountLeftIntersection = 0;
 479              		.loc 1 140 0
 480 0104 0023     		movs	r3, #0
 481 0106 FB61     		str	r3, [r7, #28]
ARM GAS  C:\Users\hsal869\AppData\Local\Temp\ccuL1rS3.s 			page 12


 141:main.c        ****           int highCountLeftLine = 0;
 482              		.loc 1 141 0
 483 0108 0023     		movs	r3, #0
 484 010a BB61     		str	r3, [r7, #24]
 142:main.c        ****           int highCountMiddleLine = 0;
 485              		.loc 1 142 0
 486 010c 0023     		movs	r3, #0
 487 010e 7B61     		str	r3, [r7, #20]
 143:main.c        ****           int highCountTurnComplete = 0;
 488              		.loc 1 143 0
 489 0110 0023     		movs	r3, #0
 490 0112 3B61     		str	r3, [r7, #16]
 144:main.c        ****           int highCountRightLine = 0;
 491              		.loc 1 144 0
 492 0114 0023     		movs	r3, #0
 493 0116 FB60     		str	r3, [r7, #12]
 145:main.c        ****           int highCountRightIntersection = 0;
 494              		.loc 1 145 0
 495 0118 0023     		movs	r3, #0
 496 011a BB60     		str	r3, [r7, #8]
 497              	.LBB3:
 146:main.c        ****           for (int i = 0; i < ADC_COUNT; i++) {
 498              		.loc 1 146 0
 499 011c 0023     		movs	r3, #0
 500 011e 7B60     		str	r3, [r7, #4]
 501 0120 44E0     		b	.L11
 502              	.L18:
 147:main.c        **** 
 148:main.c        ****             if (valuesLeftIntersection[i] > 3000) {
 503              		.loc 1 148 0
 504 0122 714A     		ldr	r2, .L44+24
 505 0124 7B68     		ldr	r3, [r7, #4]
 506 0126 52F82330 		ldr	r3, [r2, r3, lsl #2]
 507 012a 40F6B832 		movw	r2, #3000
 508 012e 9342     		cmp	r3, r2
 509 0130 02DD     		ble	.L12
 149:main.c        ****               highCountLeftIntersection++;
 510              		.loc 1 149 0
 511 0132 FB69     		ldr	r3, [r7, #28]
 512 0134 0133     		adds	r3, r3, #1
 513 0136 FB61     		str	r3, [r7, #28]
 514              	.L12:
 150:main.c        **** 
 151:main.c        ****             }
 152:main.c        **** 
 153:main.c        ****             if (valuesLeftLine[i] > 3000) {
 515              		.loc 1 153 0
 516 0138 6C4A     		ldr	r2, .L44+28
 517 013a 7B68     		ldr	r3, [r7, #4]
 518 013c 52F82330 		ldr	r3, [r2, r3, lsl #2]
 519 0140 40F6B832 		movw	r2, #3000
 520 0144 9342     		cmp	r3, r2
 521 0146 02DD     		ble	.L13
 154:main.c        ****               highCountLeftLine++;
 522              		.loc 1 154 0
 523 0148 BB69     		ldr	r3, [r7, #24]
 524 014a 0133     		adds	r3, r3, #1
ARM GAS  C:\Users\hsal869\AppData\Local\Temp\ccuL1rS3.s 			page 13


 525 014c BB61     		str	r3, [r7, #24]
 526              	.L13:
 155:main.c        **** 
 156:main.c        ****             }
 157:main.c        **** 
 158:main.c        ****             if (valuesMiddleLine[i] > 3000) {
 527              		.loc 1 158 0
 528 014e 684A     		ldr	r2, .L44+32
 529 0150 7B68     		ldr	r3, [r7, #4]
 530 0152 52F82330 		ldr	r3, [r2, r3, lsl #2]
 531 0156 40F6B832 		movw	r2, #3000
 532 015a 9342     		cmp	r3, r2
 533 015c 02DD     		ble	.L14
 159:main.c        ****               highCountMiddleLine++;
 534              		.loc 1 159 0
 535 015e 7B69     		ldr	r3, [r7, #20]
 536 0160 0133     		adds	r3, r3, #1
 537 0162 7B61     		str	r3, [r7, #20]
 538              	.L14:
 160:main.c        **** 
 161:main.c        ****             }
 162:main.c        **** 
 163:main.c        ****             if (valuesTurnComplete[i] > 3000) {
 539              		.loc 1 163 0
 540 0164 634A     		ldr	r2, .L44+36
 541 0166 7B68     		ldr	r3, [r7, #4]
 542 0168 52F82330 		ldr	r3, [r2, r3, lsl #2]
 543 016c 40F6B832 		movw	r2, #3000
 544 0170 9342     		cmp	r3, r2
 545 0172 02DD     		ble	.L15
 164:main.c        ****               highCountTurnComplete++;
 546              		.loc 1 164 0
 547 0174 3B69     		ldr	r3, [r7, #16]
 548 0176 0133     		adds	r3, r3, #1
 549 0178 3B61     		str	r3, [r7, #16]
 550              	.L15:
 165:main.c        **** 
 166:main.c        ****             }
 167:main.c        **** 
 168:main.c        ****             if (valuesRightLine[i] > 3000) {
 551              		.loc 1 168 0
 552 017a 5F4A     		ldr	r2, .L44+40
 553 017c 7B68     		ldr	r3, [r7, #4]
 554 017e 52F82330 		ldr	r3, [r2, r3, lsl #2]
 555 0182 40F6B832 		movw	r2, #3000
 556 0186 9342     		cmp	r3, r2
 557 0188 02DD     		ble	.L16
 169:main.c        ****               highCountRightLine++;
 558              		.loc 1 169 0
 559 018a FB68     		ldr	r3, [r7, #12]
 560 018c 0133     		adds	r3, r3, #1
 561 018e FB60     		str	r3, [r7, #12]
 562              	.L16:
 170:main.c        **** 
 171:main.c        ****             }
 172:main.c        **** 
 173:main.c        ****             if (valuesRightIntersection[i] > 3000) {
ARM GAS  C:\Users\hsal869\AppData\Local\Temp\ccuL1rS3.s 			page 14


 563              		.loc 1 173 0
 564 0190 5A4A     		ldr	r2, .L44+44
 565 0192 7B68     		ldr	r3, [r7, #4]
 566 0194 52F82330 		ldr	r3, [r2, r3, lsl #2]
 567 0198 40F6B832 		movw	r2, #3000
 568 019c 9342     		cmp	r3, r2
 569 019e 02DD     		ble	.L17
 174:main.c        ****               highCountRightIntersection++;
 570              		.loc 1 174 0
 571 01a0 BB68     		ldr	r3, [r7, #8]
 572 01a2 0133     		adds	r3, r3, #1
 573 01a4 BB60     		str	r3, [r7, #8]
 574              	.L17:
 146:main.c        **** 
 575              		.loc 1 146 0 discriminator 2
 576 01a6 7B68     		ldr	r3, [r7, #4]
 577 01a8 0133     		adds	r3, r3, #1
 578 01aa 7B60     		str	r3, [r7, #4]
 579              	.L11:
 146:main.c        **** 
 580              		.loc 1 146 0 is_stmt 0 discriminator 1
 581 01ac 7B68     		ldr	r3, [r7, #4]
 582 01ae B3F57A7F 		cmp	r3, #1000
 583 01b2 B6DB     		blt	.L18
 584              	.LBE3:
 175:main.c        **** 
 176:main.c        ****             }
 177:main.c        **** 
 178:main.c        ****           }
 179:main.c        ****         
 180:main.c        **** 
 181:main.c        ****           if (L_LINE_BLACK) {
 585              		.loc 1 181 0 is_stmt 1
 586 01b4 BB69     		ldr	r3, [r7, #24]
 587 01b6 952B     		cmp	r3, #149
 588 01b8 03DC     		bgt	.L19
 182:main.c        ****             LED_PIN_1_Write(0);
 589              		.loc 1 182 0
 590 01ba 0020     		movs	r0, #0
 591 01bc FFF7FEFF 		bl	LED_PIN_1_Write
 592 01c0 02E0     		b	.L20
 593              	.L19:
 183:main.c        ****           } else {
 184:main.c        ****             LED_PIN_1_Write(1);
 594              		.loc 1 184 0
 595 01c2 0120     		movs	r0, #1
 596 01c4 FFF7FEFF 		bl	LED_PIN_1_Write
 597              	.L20:
 185:main.c        ****           }
 186:main.c        **** 
 187:main.c        ****           if (M_LINE_BLACK) {
 598              		.loc 1 187 0
 599 01c8 7B69     		ldr	r3, [r7, #20]
 600 01ca 952B     		cmp	r3, #149
 601 01cc 03DC     		bgt	.L21
 188:main.c        ****             LED_PIN_2_Write(0);
 602              		.loc 1 188 0
ARM GAS  C:\Users\hsal869\AppData\Local\Temp\ccuL1rS3.s 			page 15


 603 01ce 0020     		movs	r0, #0
 604 01d0 FFF7FEFF 		bl	LED_PIN_2_Write
 605 01d4 02E0     		b	.L22
 606              	.L21:
 189:main.c        ****           } else {
 190:main.c        ****             LED_PIN_2_Write(1);
 607              		.loc 1 190 0
 608 01d6 0120     		movs	r0, #1
 609 01d8 FFF7FEFF 		bl	LED_PIN_2_Write
 610              	.L22:
 191:main.c        ****           }
 192:main.c        **** 
 193:main.c        ****           if (R_LINE_BLACK) {
 611              		.loc 1 193 0
 612 01dc FB68     		ldr	r3, [r7, #12]
 613 01de 952B     		cmp	r3, #149
 614 01e0 03DC     		bgt	.L23
 194:main.c        ****             LED_PIN_3_Write(0);
 615              		.loc 1 194 0
 616 01e2 0020     		movs	r0, #0
 617 01e4 FFF7FEFF 		bl	LED_PIN_3_Write
 618 01e8 02E0     		b	.L24
 619              	.L23:
 195:main.c        ****           } else {
 196:main.c        ****             LED_PIN_3_Write(1);
 620              		.loc 1 196 0
 621 01ea 0120     		movs	r0, #1
 622 01ec FFF7FEFF 		bl	LED_PIN_3_Write
 623              	.L24:
 197:main.c        ****           }
 198:main.c        **** 
 199:main.c        ****           shouldUpdate = 0;
 624              		.loc 1 199 0
 625 01f0 434B     		ldr	r3, .L44+48
 626 01f2 0022     		movs	r2, #0
 627 01f4 1A60     		str	r2, [r3]
 200:main.c        **** 
 201:main.c        ****           if (L_INT_BLACK && M_LINE_BLACK && R_INT_BLACK && TC_BLACK && L_LINE_BLACK && R_LINE_BLAC
 628              		.loc 1 201 0
 629 01f6 FB69     		ldr	r3, [r7, #28]
 630 01f8 952B     		cmp	r3, #149
 631 01fa 11DC     		bgt	.L25
 632              		.loc 1 201 0 is_stmt 0 discriminator 1
 633 01fc 7B69     		ldr	r3, [r7, #20]
 634 01fe 952B     		cmp	r3, #149
 635 0200 0EDC     		bgt	.L25
 636              		.loc 1 201 0 discriminator 2
 637 0202 BB68     		ldr	r3, [r7, #8]
 638 0204 952B     		cmp	r3, #149
 639 0206 0BDC     		bgt	.L25
 640              		.loc 1 201 0 discriminator 3
 641 0208 3B69     		ldr	r3, [r7, #16]
 642 020a 952B     		cmp	r3, #149
 643 020c 08DC     		bgt	.L25
 644              		.loc 1 201 0 discriminator 4
 645 020e BB69     		ldr	r3, [r7, #24]
 646 0210 952B     		cmp	r3, #149
ARM GAS  C:\Users\hsal869\AppData\Local\Temp\ccuL1rS3.s 			page 16


 647 0212 05DC     		bgt	.L25
 648              		.loc 1 201 0 discriminator 5
 649 0214 FB68     		ldr	r3, [r7, #12]
 650 0216 952B     		cmp	r3, #149
 651 0218 02DC     		bgt	.L25
 202:main.c        ****             // If all the sensors are under black light, stop the robot
 203:main.c        ****             stop();
 652              		.loc 1 203 0 is_stmt 1
 653 021a FFF7FEFF 		bl	stop
 654 021e D2E0     		b	.L10
 655              	.L25:
 204:main.c        ****           } else if (turningLeft == 1) {
 656              		.loc 1 204 0
 657 0220 384B     		ldr	r3, .L44+52
 658 0222 1B68     		ldr	r3, [r3]
 659 0224 012B     		cmp	r3, #1
 660 0226 0BD1     		bne	.L26
 205:main.c        ****             turnLeft();
 661              		.loc 1 205 0
 662 0228 FFF7FEFF 		bl	turnLeft
 206:main.c        ****             if (L_LINE_BLACK){
 663              		.loc 1 206 0
 664 022c BB69     		ldr	r3, [r7, #24]
 665 022e 952B     		cmp	r3, #149
 666 0230 02DC     		bgt	.L27
 207:main.c        ****               turningLeft = 0;
 667              		.loc 1 207 0
 668 0232 344B     		ldr	r3, .L44+52
 669 0234 0022     		movs	r2, #0
 670 0236 1A60     		str	r2, [r3]
 671              	.L27:
 208:main.c        ****             } 
 209:main.c        ****             turnEnable = 0;
 672              		.loc 1 209 0
 673 0238 334B     		ldr	r3, .L44+56
 674 023a 0022     		movs	r2, #0
 675 023c 1A60     		str	r2, [r3]
 676 023e C2E0     		b	.L10
 677              	.L26:
 210:main.c        ****           } else if (turningRight == 1) {
 678              		.loc 1 210 0
 679 0240 324B     		ldr	r3, .L44+60
 680 0242 1B68     		ldr	r3, [r3]
 681 0244 012B     		cmp	r3, #1
 682 0246 0BD1     		bne	.L28
 211:main.c        ****               turnRight();
 683              		.loc 1 211 0
 684 0248 FFF7FEFF 		bl	turnRight
 212:main.c        ****               if (R_LINE_BLACK) {
 685              		.loc 1 212 0
 686 024c FB68     		ldr	r3, [r7, #12]
 687 024e 952B     		cmp	r3, #149
 688 0250 02DC     		bgt	.L29
 213:main.c        ****                 turningRight = 0;
 689              		.loc 1 213 0
 690 0252 2E4B     		ldr	r3, .L44+60
 691 0254 0022     		movs	r2, #0
ARM GAS  C:\Users\hsal869\AppData\Local\Temp\ccuL1rS3.s 			page 17


 692 0256 1A60     		str	r2, [r3]
 693              	.L29:
 214:main.c        ****               }
 215:main.c        ****               turnEnable = 0;
 694              		.loc 1 215 0
 695 0258 2B4B     		ldr	r3, .L44+56
 696 025a 0022     		movs	r2, #0
 697 025c 1A60     		str	r2, [r3]
 698 025e B2E0     		b	.L10
 699              	.L28:
 216:main.c        ****           } else if (L_INT_BLACK && (M_LINE_BLACK || L_LINE_BLACK) && turnEnable == 1) { //initiate
 700              		.loc 1 216 0
 701 0260 FB69     		ldr	r3, [r7, #28]
 702 0262 952B     		cmp	r3, #149
 703 0264 10DC     		bgt	.L30
 704              		.loc 1 216 0 is_stmt 0 discriminator 1
 705 0266 7B69     		ldr	r3, [r7, #20]
 706 0268 952B     		cmp	r3, #149
 707 026a 02DD     		ble	.L31
 708              		.loc 1 216 0 discriminator 3
 709 026c BB69     		ldr	r3, [r7, #24]
 710 026e 952B     		cmp	r3, #149
 711 0270 0ADC     		bgt	.L30
 712              	.L31:
 713              		.loc 1 216 0 discriminator 4
 714 0272 254B     		ldr	r3, .L44+56
 715 0274 1B68     		ldr	r3, [r3]
 716 0276 012B     		cmp	r3, #1
 717 0278 06D1     		bne	.L30
 217:main.c        ****             
 218:main.c        ****             turningLeft = 1;
 718              		.loc 1 218 0 is_stmt 1
 719 027a 224B     		ldr	r3, .L44+52
 720 027c 0122     		movs	r2, #1
 721 027e 1A60     		str	r2, [r3]
 219:main.c        ****             lastAdjustDirection = 0;
 722              		.loc 1 219 0
 723 0280 234B     		ldr	r3, .L44+64
 724 0282 0022     		movs	r2, #0
 725 0284 1A60     		str	r2, [r3]
 726 0286 9EE0     		b	.L10
 727              	.L30:
 220:main.c        **** 
 221:main.c        ****           } else if (R_INT_BLACK && (M_LINE_BLACK || R_LINE_BLACK) && turnEnable == 1) { //initiate
 728              		.loc 1 221 0
 729 0288 BB68     		ldr	r3, [r7, #8]
 730 028a 952B     		cmp	r3, #149
 731 028c 10DC     		bgt	.L32
 732              		.loc 1 221 0 is_stmt 0 discriminator 1
 733 028e 7B69     		ldr	r3, [r7, #20]
 734 0290 952B     		cmp	r3, #149
 735 0292 02DD     		ble	.L33
 736              		.loc 1 221 0 discriminator 3
 737 0294 FB68     		ldr	r3, [r7, #12]
 738 0296 952B     		cmp	r3, #149
 739 0298 0ADC     		bgt	.L32
 740              	.L33:
ARM GAS  C:\Users\hsal869\AppData\Local\Temp\ccuL1rS3.s 			page 18


 741              		.loc 1 221 0 discriminator 4
 742 029a 1B4B     		ldr	r3, .L44+56
 743 029c 1B68     		ldr	r3, [r3]
 744 029e 012B     		cmp	r3, #1
 745 02a0 06D1     		bne	.L32
 222:main.c        ****             lastAdjustDirection = 2;
 746              		.loc 1 222 0 is_stmt 1
 747 02a2 1B4B     		ldr	r3, .L44+64
 748 02a4 0222     		movs	r2, #2
 749 02a6 1A60     		str	r2, [r3]
 223:main.c        ****             turningRight = 1;
 750              		.loc 1 223 0
 751 02a8 184B     		ldr	r3, .L44+60
 752 02aa 0122     		movs	r2, #1
 753 02ac 1A60     		str	r2, [r3]
 754 02ae 8AE0     		b	.L10
 755              	.L32:
 224:main.c        **** 
 225:main.c        ****           } else if (M_LINE_BLACK && L_LINE_BLACK) {
 756              		.loc 1 225 0
 757 02b0 7B69     		ldr	r3, [r7, #20]
 758 02b2 952B     		cmp	r3, #149
 759 02b4 2EDC     		bgt	.L34
 760              		.loc 1 225 0 is_stmt 0 discriminator 1
 761 02b6 BB69     		ldr	r3, [r7, #24]
 762 02b8 952B     		cmp	r3, #149
 763 02ba 2BDC     		bgt	.L34
 226:main.c        ****             adjustLeft();
 764              		.loc 1 226 0 is_stmt 1
 765 02bc FFF7FEFF 		bl	adjustLeft
 227:main.c        ****             turnEnable = 1;
 766              		.loc 1 227 0
 767 02c0 114B     		ldr	r3, .L44+56
 768 02c2 0122     		movs	r2, #1
 769 02c4 1A60     		str	r2, [r3]
 228:main.c        ****             lastAdjustDirection = 0;
 770              		.loc 1 228 0
 771 02c6 124B     		ldr	r3, .L44+64
 772 02c8 0022     		movs	r2, #0
 773 02ca 1A60     		str	r2, [r3]
 774 02cc 7BE0     		b	.L10
 775              	.L45:
 776 02ce 00BF     		.align	2
 777              	.L44:
 778 02d0 00000000 		.word	MyISR
 779 02d4 00000000 		.word	eoc
 780 02d8 00000000 		.word	distanceTravelled
 781 02dc FFC99A3B 		.word	999999999
 782 02e0 00000000 		.word	flag
 783 02e4 00000000 		.word	count
 784 02e8 00000000 		.word	valuesLeftIntersection
 785 02ec 00000000 		.word	valuesLeftLine
 786 02f0 00000000 		.word	valuesMiddleLine
 787 02f4 00000000 		.word	valuesTurnComplete
 788 02f8 00000000 		.word	valuesRightLine
 789 02fc 00000000 		.word	valuesRightIntersection
 790 0300 00000000 		.word	shouldUpdate
ARM GAS  C:\Users\hsal869\AppData\Local\Temp\ccuL1rS3.s 			page 19


 791 0304 00000000 		.word	turningLeft
 792 0308 00000000 		.word	turnEnable
 793 030c 00000000 		.word	turningRight
 794 0310 00000000 		.word	lastAdjustDirection
 795              	.L34:
 229:main.c        ****             
 230:main.c        ****           } else if (M_LINE_BLACK && R_LINE_BLACK) {
 796              		.loc 1 230 0
 797 0314 7B69     		ldr	r3, [r7, #20]
 798 0316 952B     		cmp	r3, #149
 799 0318 0BDC     		bgt	.L35
 800              		.loc 1 230 0 is_stmt 0 discriminator 1
 801 031a FB68     		ldr	r3, [r7, #12]
 802 031c 952B     		cmp	r3, #149
 803 031e 08DC     		bgt	.L35
 231:main.c        ****             adjustRight();
 804              		.loc 1 231 0 is_stmt 1
 805 0320 FFF7FEFF 		bl	adjustRight
 232:main.c        ****             lastAdjustDirection = 2;
 806              		.loc 1 232 0
 807 0324 2B4B     		ldr	r3, .L46
 808 0326 0222     		movs	r2, #2
 809 0328 1A60     		str	r2, [r3]
 233:main.c        ****             turnEnable = 1;
 810              		.loc 1 233 0
 811 032a 2B4B     		ldr	r3, .L46+4
 812 032c 0122     		movs	r2, #1
 813 032e 1A60     		str	r2, [r3]
 814 0330 49E0     		b	.L10
 815              	.L35:
 234:main.c        ****             
 235:main.c        ****           } else if (M_LINE_BLACK) {
 816              		.loc 1 235 0
 817 0332 7B69     		ldr	r3, [r7, #20]
 818 0334 952B     		cmp	r3, #149
 819 0336 12DC     		bgt	.L36
 236:main.c        ****             shouldUpdate = 1;
 820              		.loc 1 236 0
 821 0338 284B     		ldr	r3, .L46+8
 822 033a 0122     		movs	r2, #1
 823 033c 1A60     		str	r2, [r3]
 237:main.c        ****             lastAdjustDirection = 1;
 824              		.loc 1 237 0
 825 033e 254B     		ldr	r3, .L46
 826 0340 0122     		movs	r2, #1
 827 0342 1A60     		str	r2, [r3]
 238:main.c        ****             turnEnable = 1;
 828              		.loc 1 238 0
 829 0344 244B     		ldr	r3, .L46+4
 830 0346 0122     		movs	r2, #1
 831 0348 1A60     		str	r2, [r3]
 239:main.c        ****             driveForward(distancePerSecondL, distancePerSecondR, TARGET_SPEED);
 832              		.loc 1 239 0
 833 034a 254B     		ldr	r3, .L46+12
 834 034c 1868     		ldr	r0, [r3]
 835 034e 254B     		ldr	r3, .L46+16
 836 0350 1968     		ldr	r1, [r3]
ARM GAS  C:\Users\hsal869\AppData\Local\Temp\ccuL1rS3.s 			page 20


 837 0352 254B     		ldr	r3, .L46+20
 838 0354 1B68     		ldr	r3, [r3]
 839 0356 1A46     		mov	r2, r3
 840 0358 FFF7FEFF 		bl	driveForward
 841 035c 33E0     		b	.L10
 842              	.L36:
 240:main.c        ****             
 241:main.c        ****           } else if (R_LINE_BLACK) {
 843              		.loc 1 241 0
 844 035e FB68     		ldr	r3, [r7, #12]
 845 0360 952B     		cmp	r3, #149
 846 0362 08DC     		bgt	.L37
 242:main.c        ****             adjustRight();
 847              		.loc 1 242 0
 848 0364 FFF7FEFF 		bl	adjustRight
 243:main.c        ****             turnEnable = 1;
 849              		.loc 1 243 0
 850 0368 1B4B     		ldr	r3, .L46+4
 851 036a 0122     		movs	r2, #1
 852 036c 1A60     		str	r2, [r3]
 244:main.c        ****             lastAdjustDirection = 2;
 853              		.loc 1 244 0
 854 036e 194B     		ldr	r3, .L46
 855 0370 0222     		movs	r2, #2
 856 0372 1A60     		str	r2, [r3]
 857 0374 27E0     		b	.L10
 858              	.L37:
 245:main.c        ****             
 246:main.c        ****           } else if (L_LINE_BLACK) {
 859              		.loc 1 246 0
 860 0376 BB69     		ldr	r3, [r7, #24]
 861 0378 952B     		cmp	r3, #149
 862 037a 08DC     		bgt	.L38
 247:main.c        ****             adjustLeft();
 863              		.loc 1 247 0
 864 037c FFF7FEFF 		bl	adjustLeft
 248:main.c        ****             turnEnable = 1;
 865              		.loc 1 248 0
 866 0380 154B     		ldr	r3, .L46+4
 867 0382 0122     		movs	r2, #1
 868 0384 1A60     		str	r2, [r3]
 249:main.c        ****             lastAdjustDirection = 0;
 869              		.loc 1 249 0
 870 0386 134B     		ldr	r3, .L46
 871 0388 0022     		movs	r2, #0
 872 038a 1A60     		str	r2, [r3]
 873 038c 1BE0     		b	.L10
 874              	.L38:
 250:main.c        ****             
 251:main.c        ****           } else if (L_INT_BLACK){
 875              		.loc 1 251 0
 876 038e FB69     		ldr	r3, [r7, #28]
 877 0390 952B     		cmp	r3, #149
 878 0392 02DC     		bgt	.L39
 252:main.c        ****             hardAdjustLeft();
 879              		.loc 1 252 0
 880 0394 FFF7FEFF 		bl	hardAdjustLeft
ARM GAS  C:\Users\hsal869\AppData\Local\Temp\ccuL1rS3.s 			page 21


 881 0398 15E0     		b	.L10
 882              	.L39:
 253:main.c        ****             
 254:main.c        ****           } else if (R_INT_BLACK){
 883              		.loc 1 254 0
 884 039a BB68     		ldr	r3, [r7, #8]
 885 039c 952B     		cmp	r3, #149
 886 039e 02DC     		bgt	.L40
 255:main.c        ****             hardAdjustRight();
 887              		.loc 1 255 0
 888 03a0 FFF7FEFF 		bl	hardAdjustRight
 889 03a4 0FE0     		b	.L10
 890              	.L40:
 256:main.c        ****             
 257:main.c        ****         } 
 258:main.c        ****         
 259:main.c        ****         else { // completely lost find way
 260:main.c        ****             if (lastAdjustDirection == 0) {
 891              		.loc 1 260 0
 892 03a6 0B4B     		ldr	r3, .L46
 893 03a8 1B68     		ldr	r3, [r3]
 894 03aa 002B     		cmp	r3, #0
 895 03ac 02D1     		bne	.L41
 261:main.c        ****               restoreLeft();
 896              		.loc 1 261 0
 897 03ae FFF7FEFF 		bl	restoreLeft
 898 03b2 08E0     		b	.L10
 899              	.L41:
 262:main.c        ****             } else if (lastAdjustDirection == 1) {
 900              		.loc 1 262 0
 901 03b4 074B     		ldr	r3, .L46
 902 03b6 1B68     		ldr	r3, [r3]
 903 03b8 012B     		cmp	r3, #1
 904 03ba 02D1     		bne	.L42
 263:main.c        ****               reverse();
 905              		.loc 1 263 0
 906 03bc FFF7FEFF 		bl	reverse
 907 03c0 01E0     		b	.L10
 908              	.L42:
 264:main.c        ****             } else {
 265:main.c        ****               restoreRight();
 909              		.loc 1 265 0
 910 03c2 FFF7FEFF 		bl	restoreRight
 911              	.L10:
 912              	.LBE2:
 266:main.c        ****             }
 267:main.c        ****           }
 268:main.c        **** 
 269:main.c        ****           }
 270:main.c        **** 
 271:main.c        ****         flag = 0;
 913              		.loc 1 271 0
 914 03c6 094B     		ldr	r3, .L46+24
 915 03c8 0022     		movs	r2, #0
 916 03ca 1A60     		str	r2, [r3]
 272:main.c        ****         ADC_IRQ_Enable();
 917              		.loc 1 272 0
ARM GAS  C:\Users\hsal869\AppData\Local\Temp\ccuL1rS3.s 			page 22


 918 03cc FFF7FEFF 		bl	ADC_IRQ_Enable
 273:main.c        ****     }
 274:main.c        ****      }
 275:main.c        ****           
 276:main.c        ****       
 277:main.c        **** //  }
 278:main.c        **** //
 279:main.c        **** //}
 280:main.c        **** //// }
 281:main.c        **** ////* ========================================
 282:main.c        **** //void usbPutString(char * s) {
 283:main.c        **** //  // !! Assumes that *s is a string with allocated space >=64 chars     
 284:main.c        **** //  //  Since USB implementation retricts data packets to 64 chars, this function truncates the
 285:main.c        **** //  //  length to 62 char (63rd char is a '!')
 286:main.c        **** //
 287:main.c        **** //  #ifdef USE_USB
 288:main.c        **** //  while (USBUART_CDCIsReady() == 0);
 289:main.c        **** //  s[63] = '\0';
 290:main.c        **** //  s[62] = '!';
 291:main.c        **** //  USBUART_PutData((uint8 * ) s, strlen(s));
 292:main.c        **** //  #endif
 293:main.c        **** //}
 294:main.c        **** ////* ========================================
 295:main.c        **** //void usbPutChar(char c) {
 296:main.c        **** //  #ifdef USE_USB
 297:main.c        **** //  while (USBUART_CDCIsReady() == 0);
 298:main.c        **** //  USBUART_PutChar(c);
 299:main.c        **** //  #endif
 300:main.c        **** //}
 301:main.c        **** ////* ========================================
 302:main.c        **** //
 303:main.c        **** //void printSensorDebug(int highCountLeftIntersection, int highCountLeftLine, int highCountMiddleLi
 304:main.c        **** //  char leftLineText[11];
 305:main.c        **** //  char rightIntText[11];
 306:main.c        **** //  char leftIntText[11];
 307:main.c        **** //  char rightLineText[11];
 308:main.c        **** //  char turnCompleteText[11];
 309:main.c        **** //  char middleLineText[11];
 310:main.c        **** //
 311:main.c        **** //  if (L_INT_BLACK) {
 312:main.c        **** //    //LED_PIN_2_Write(0);
 313:main.c        **** //    strcpy(leftIntText, "S1 - 0\r\n");
 314:main.c        **** //  } else {
 315:main.c        **** //    //LED_PIN_2_Write(1);
 316:main.c        **** //    strcpy(leftIntText, "S1 - 1\r\n");
 317:main.c        **** //  }
 318:main.c        **** //
 319:main.c        **** //  if (R_INT_BLACK) {
 320:main.c        **** //    strcpy(rightIntText, "S5 - 0\r\n");
 321:main.c        **** //  } else {
 322:main.c        **** //    strcpy(rightIntText, "S5 - 1\r\n");
 323:main.c        **** //  }
 324:main.c        **** //
 325:main.c        **** //  if (L_LINE_BLACK) {
 326:main.c        **** //    strcpy(leftLineText, "S2 - 0\r\n");
 327:main.c        **** //  } else {
 328:main.c        **** //    strcpy(leftLineText, "S2 - 1\r\n");
ARM GAS  C:\Users\hsal869\AppData\Local\Temp\ccuL1rS3.s 			page 23


 329:main.c        **** //  }
 330:main.c        **** //
 331:main.c        **** //  if (R_LINE_BLACK) {
 332:main.c        **** //    strcpy(rightLineText, "S4 - 0\r\n");
 333:main.c        **** //  } else {
 334:main.c        **** //    strcpy(rightLineText, "S4 - 1\r\n");
 335:main.c        **** //  }
 336:main.c        **** //
 337:main.c        **** //  if (TC_BLACK) {
 338:main.c        **** //    strcpy(turnCompleteText, "test");
 339:main.c        **** //  } else {
 340:main.c        **** //    strcpy(turnCompleteText, "test");
 341:main.c        **** //  }
 342:main.c        **** //
 343:main.c        **** //  if (M_LINE_BLACK) {
 344:main.c        **** //    strcpy(middleLineText, "S3 - 0\r\n");
 345:main.c        **** //  } else {
 346:main.c        **** //    strcpy(middleLineText, "S3 - 1\r\n");
 347:main.c        **** //  }
 348:main.c        **** //
 349:main.c        **** //  /*usbPutString(leftIntText);
 350:main.c        **** //  usbPutString(leftLineText);
 351:main.c        **** //  usbPutString(middleLineText);
 352:main.c        **** //  usbPutString(rightLineText);
 353:main.c        **** //  usbPutString(rightIntText);*/
 354:main.c        **** 
 355:main.c        ****   //usbPutString(turnCompleteText);
 356:main.c        **** 
 357:main.c        ****   //usbPutString("-------------\r\n");
 358:main.c        **** }
 919              		.loc 1 358 0
 920 03d0 3AE6     		b	.L43
 921              	.L47:
 922 03d2 00BF     		.align	2
 923              	.L46:
 924 03d4 00000000 		.word	lastAdjustDirection
 925 03d8 00000000 		.word	turnEnable
 926 03dc 00000000 		.word	shouldUpdate
 927 03e0 00000000 		.word	distancePerSecondL
 928 03e4 00000000 		.word	distancePerSecondR
 929 03e8 00000000 		.word	TARGET_SPEED
 930 03ec 00000000 		.word	flag
 931              		.cfi_endproc
 932              	.LFE66:
 933              		.size	main, .-main
 934              		.text
 935              	.Letext0:
 936              		.file 2 "c:\\program files (x86)\\cypress\\psoc creator\\4.2\\psoc creator\\import\\gnu\\arm\\5.4.
 937              		.file 3 "c:\\program files (x86)\\cypress\\psoc creator\\4.2\\psoc creator\\import\\gnu\\arm\\5.4.
 938              		.file 4 "Generated_Source\\PSoC5/cytypes.h"
 939              		.file 5 "vars.h"
 940              		.file 6 "Generated_Source\\PSoC5/core_cm3.h"