ARM GAS  C:\Users\hsal869\AppData\Local\Temp\ccwZ4jCv.s 			page 1


   1              		.syntax unified
   2              		.cpu cortex-m3
   3              		.fpu softvfp
   4              		.eabi_attribute 20, 1
   5              		.eabi_attribute 21, 1
   6              		.eabi_attribute 23, 3
   7              		.eabi_attribute 24, 1
   8              		.eabi_attribute 25, 1
   9              		.eabi_attribute 26, 1
  10              		.eabi_attribute 30, 6
  11              		.eabi_attribute 34, 1
  12              		.eabi_attribute 18, 4
  13              		.thumb
  14              		.syntax unified
  15              		.file	"motors.c"
  16              		.text
  17              	.Ltext0:
  18              		.cfi_sections	.debug_frame
  19              		.global	currentFLeftSpeed
  20              		.data
  21              		.align	2
  22              		.type	currentFLeftSpeed, %object
  23              		.size	currentFLeftSpeed, 4
  24              	currentFLeftSpeed:
  25 0000 A3000000 		.word	163
  26              		.global	currentFRightSpeed
  27              		.align	2
  28              		.type	currentFRightSpeed, %object
  29              		.size	currentFRightSpeed, 4
  30              	currentFRightSpeed:
  31 0004 A4000000 		.word	164
  32              		.section	.text.initMotors,"ax",%progbits
  33              		.align	2
  34              		.global	initMotors
  35              		.thumb
  36              		.thumb_func
  37              		.type	initMotors, %function
  38              	initMotors:
  39              	.LFB63:
  40              		.file 1 "motors.c"
   1:motors.c      **** /* ========================================
   2:motors.c      ****  *
   3:motors.c      ****  * Copyright YOUR COMPANY, THE YEAR
   4:motors.c      ****  * All Rights Reserved
   5:motors.c      ****  * UNPUBLISHED, LICENSED SOFTWARE.
   6:motors.c      ****  *
   7:motors.c      ****  * CONFIDENTIAL AND PROPRIETARY INFORMATION
   8:motors.c      ****  * WHICH IS THE PROPERTY OF your company.
   9:motors.c      ****  *
  10:motors.c      ****  * ========================================
  11:motors.c      **** */
  12:motors.c      **** 
  13:motors.c      **** #include <project.h>
  14:motors.c      **** #include "motors.h"
  15:motors.c      **** 
  16:motors.c      **** volatile int currentFLeftSpeed = 163; //was 161 + 2
  17:motors.c      **** volatile int currentFRightSpeed = 164;// was 162 + 2
ARM GAS  C:\Users\hsal869\AppData\Local\Temp\ccwZ4jCv.s 			page 2


  18:motors.c      **** 
  19:motors.c      **** 
  20:motors.c      **** void initMotors() {
  41              		.loc 1 20 0
  42              		.cfi_startproc
  43              		@ args = 0, pretend = 0, frame = 0
  44              		@ frame_needed = 1, uses_anonymous_args = 0
  45 0000 80B5     		push	{r7, lr}
  46              		.cfi_def_cfa_offset 8
  47              		.cfi_offset 7, -8
  48              		.cfi_offset 14, -4
  49 0002 00AF     		add	r7, sp, #0
  50              		.cfi_def_cfa_register 7
  21:motors.c      ****     PWM_1_WritePeriod(165);
  51              		.loc 1 21 0
  52 0004 A520     		movs	r0, #165
  53 0006 FFF7FEFF 		bl	PWM_1_WritePeriod
  22:motors.c      ****     PWM_2_WritePeriod(165);
  54              		.loc 1 22 0
  55 000a A520     		movs	r0, #165
  56 000c FFF7FEFF 		bl	PWM_2_WritePeriod
  23:motors.c      ****     PWM_1_Start();
  57              		.loc 1 23 0
  58 0010 FFF7FEFF 		bl	PWM_1_Start
  24:motors.c      ****     PWM_2_Start();
  59              		.loc 1 24 0
  60 0014 FFF7FEFF 		bl	PWM_2_Start
  25:motors.c      **** }
  61              		.loc 1 25 0
  62 0018 00BF     		nop
  63 001a 80BD     		pop	{r7, pc}
  64              		.cfi_endproc
  65              	.LFE63:
  66              		.size	initMotors, .-initMotors
  67              		.section	.text.getLeftPWM,"ax",%progbits
  68              		.align	2
  69              		.global	getLeftPWM
  70              		.thumb
  71              		.thumb_func
  72              		.type	getLeftPWM, %function
  73              	getLeftPWM:
  74              	.LFB64:
  26:motors.c      **** 
  27:motors.c      **** int getLeftPWM(void) {
  75              		.loc 1 27 0
  76              		.cfi_startproc
  77              		@ args = 0, pretend = 0, frame = 0
  78              		@ frame_needed = 1, uses_anonymous_args = 0
  79              		@ link register save eliminated.
  80 0000 80B4     		push	{r7}
  81              		.cfi_def_cfa_offset 4
  82              		.cfi_offset 7, -4
  83 0002 00AF     		add	r7, sp, #0
  84              		.cfi_def_cfa_register 7
  28:motors.c      ****     return currentFLeftSpeed;
  85              		.loc 1 28 0
  86 0004 024B     		ldr	r3, .L4
ARM GAS  C:\Users\hsal869\AppData\Local\Temp\ccwZ4jCv.s 			page 3


  87 0006 1B68     		ldr	r3, [r3]
  29:motors.c      **** }
  88              		.loc 1 29 0
  89 0008 1846     		mov	r0, r3
  90 000a BD46     		mov	sp, r7
  91              		.cfi_def_cfa_register 13
  92              		@ sp needed
  93 000c 80BC     		pop	{r7}
  94              		.cfi_restore 7
  95              		.cfi_def_cfa_offset 0
  96 000e 7047     		bx	lr
  97              	.L5:
  98              		.align	2
  99              	.L4:
 100 0010 00000000 		.word	currentFLeftSpeed
 101              		.cfi_endproc
 102              	.LFE64:
 103              		.size	getLeftPWM, .-getLeftPWM
 104              		.section	.text.getRightPWM,"ax",%progbits
 105              		.align	2
 106              		.global	getRightPWM
 107              		.thumb
 108              		.thumb_func
 109              		.type	getRightPWM, %function
 110              	getRightPWM:
 111              	.LFB65:
  30:motors.c      **** 
  31:motors.c      **** int getRightPWM(void) {
 112              		.loc 1 31 0
 113              		.cfi_startproc
 114              		@ args = 0, pretend = 0, frame = 0
 115              		@ frame_needed = 1, uses_anonymous_args = 0
 116              		@ link register save eliminated.
 117 0000 80B4     		push	{r7}
 118              		.cfi_def_cfa_offset 4
 119              		.cfi_offset 7, -4
 120 0002 00AF     		add	r7, sp, #0
 121              		.cfi_def_cfa_register 7
  32:motors.c      ****     return currentFRightSpeed;
 122              		.loc 1 32 0
 123 0004 024B     		ldr	r3, .L8
 124 0006 1B68     		ldr	r3, [r3]
  33:motors.c      **** }
 125              		.loc 1 33 0
 126 0008 1846     		mov	r0, r3
 127 000a BD46     		mov	sp, r7
 128              		.cfi_def_cfa_register 13
 129              		@ sp needed
 130 000c 80BC     		pop	{r7}
 131              		.cfi_restore 7
 132              		.cfi_def_cfa_offset 0
 133 000e 7047     		bx	lr
 134              	.L9:
 135              		.align	2
 136              	.L8:
 137 0010 00000000 		.word	currentFRightSpeed
 138              		.cfi_endproc
ARM GAS  C:\Users\hsal869\AppData\Local\Temp\ccwZ4jCv.s 			page 4


 139              	.LFE65:
 140              		.size	getRightPWM, .-getRightPWM
 141              		.section	.text.driveForward,"ax",%progbits
 142              		.align	2
 143              		.global	driveForward
 144              		.thumb
 145              		.thumb_func
 146              		.type	driveForward, %function
 147              	driveForward:
 148              	.LFB66:
  34:motors.c      **** 
  35:motors.c      **** void driveForward() {  
 149              		.loc 1 35 0
 150              		.cfi_startproc
 151              		@ args = 0, pretend = 0, frame = 0
 152              		@ frame_needed = 1, uses_anonymous_args = 0
 153 0000 80B5     		push	{r7, lr}
 154              		.cfi_def_cfa_offset 8
 155              		.cfi_offset 7, -8
 156              		.cfi_offset 14, -4
 157 0002 00AF     		add	r7, sp, #0
 158              		.cfi_def_cfa_register 7
  36:motors.c      ****         PWM_1_WriteCompare(currentFLeftSpeed); 
 159              		.loc 1 36 0
 160 0004 064B     		ldr	r3, .L11
 161 0006 1B68     		ldr	r3, [r3]
 162 0008 DBB2     		uxtb	r3, r3
 163 000a 1846     		mov	r0, r3
 164 000c FFF7FEFF 		bl	PWM_1_WriteCompare
  37:motors.c      ****         PWM_2_WriteCompare(currentFRightSpeed); 
 165              		.loc 1 37 0
 166 0010 044B     		ldr	r3, .L11+4
 167 0012 1B68     		ldr	r3, [r3]
 168 0014 DBB2     		uxtb	r3, r3
 169 0016 1846     		mov	r0, r3
 170 0018 FFF7FEFF 		bl	PWM_2_WriteCompare
  38:motors.c      **** }
 171              		.loc 1 38 0
 172 001c 00BF     		nop
 173 001e 80BD     		pop	{r7, pc}
 174              	.L12:
 175              		.align	2
 176              	.L11:
 177 0020 00000000 		.word	currentFLeftSpeed
 178 0024 00000000 		.word	currentFRightSpeed
 179              		.cfi_endproc
 180              	.LFE66:
 181              		.size	driveForward, .-driveForward
 182              		.section	.text.stop,"ax",%progbits
 183              		.align	2
 184              		.global	stop
 185              		.thumb
 186              		.thumb_func
 187              		.type	stop, %function
 188              	stop:
 189              	.LFB67:
  39:motors.c      **** 
ARM GAS  C:\Users\hsal869\AppData\Local\Temp\ccwZ4jCv.s 			page 5


  40:motors.c      **** void stop() {
 190              		.loc 1 40 0
 191              		.cfi_startproc
 192              		@ args = 0, pretend = 0, frame = 0
 193              		@ frame_needed = 1, uses_anonymous_args = 0
 194 0000 80B5     		push	{r7, lr}
 195              		.cfi_def_cfa_offset 8
 196              		.cfi_offset 7, -8
 197              		.cfi_offset 14, -4
 198 0002 00AF     		add	r7, sp, #0
 199              		.cfi_def_cfa_register 7
  41:motors.c      ****     PWM_1_WriteCompare(125);
 200              		.loc 1 41 0
 201 0004 7D20     		movs	r0, #125
 202 0006 FFF7FEFF 		bl	PWM_1_WriteCompare
  42:motors.c      ****     PWM_2_WriteCompare(125);  
 203              		.loc 1 42 0
 204 000a 7D20     		movs	r0, #125
 205 000c FFF7FEFF 		bl	PWM_2_WriteCompare
  43:motors.c      **** }
 206              		.loc 1 43 0
 207 0010 00BF     		nop
 208 0012 80BD     		pop	{r7, pc}
 209              		.cfi_endproc
 210              	.LFE67:
 211              		.size	stop, .-stop
 212              		.section	.text.adjustLeft,"ax",%progbits
 213              		.align	2
 214              		.global	adjustLeft
 215              		.thumb
 216              		.thumb_func
 217              		.type	adjustLeft, %function
 218              	adjustLeft:
 219              	.LFB68:
  44:motors.c      **** 
  45:motors.c      **** void adjustLeft() {
 220              		.loc 1 45 0
 221              		.cfi_startproc
 222              		@ args = 0, pretend = 0, frame = 0
 223              		@ frame_needed = 1, uses_anonymous_args = 0
 224 0000 80B5     		push	{r7, lr}
 225              		.cfi_def_cfa_offset 8
 226              		.cfi_offset 7, -8
 227              		.cfi_offset 14, -4
 228 0002 00AF     		add	r7, sp, #0
 229              		.cfi_def_cfa_register 7
  46:motors.c      ****     PWM_1_WriteCompare(currentFLeftSpeed - 3);
 230              		.loc 1 46 0
 231 0004 084B     		ldr	r3, .L15
 232 0006 1B68     		ldr	r3, [r3]
 233 0008 DBB2     		uxtb	r3, r3
 234 000a 033B     		subs	r3, r3, #3
 235 000c DBB2     		uxtb	r3, r3
 236 000e 1846     		mov	r0, r3
 237 0010 FFF7FEFF 		bl	PWM_1_WriteCompare
  47:motors.c      ****     PWM_2_WriteCompare(currentFRightSpeed + 3);
 238              		.loc 1 47 0
ARM GAS  C:\Users\hsal869\AppData\Local\Temp\ccwZ4jCv.s 			page 6


 239 0014 054B     		ldr	r3, .L15+4
 240 0016 1B68     		ldr	r3, [r3]
 241 0018 DBB2     		uxtb	r3, r3
 242 001a 0333     		adds	r3, r3, #3
 243 001c DBB2     		uxtb	r3, r3
 244 001e 1846     		mov	r0, r3
 245 0020 FFF7FEFF 		bl	PWM_2_WriteCompare
  48:motors.c      **** }
 246              		.loc 1 48 0
 247 0024 00BF     		nop
 248 0026 80BD     		pop	{r7, pc}
 249              	.L16:
 250              		.align	2
 251              	.L15:
 252 0028 00000000 		.word	currentFLeftSpeed
 253 002c 00000000 		.word	currentFRightSpeed
 254              		.cfi_endproc
 255              	.LFE68:
 256              		.size	adjustLeft, .-adjustLeft
 257              		.section	.text.adjustRight,"ax",%progbits
 258              		.align	2
 259              		.global	adjustRight
 260              		.thumb
 261              		.thumb_func
 262              		.type	adjustRight, %function
 263              	adjustRight:
 264              	.LFB69:
  49:motors.c      **** 
  50:motors.c      **** void adjustRight() {
 265              		.loc 1 50 0
 266              		.cfi_startproc
 267              		@ args = 0, pretend = 0, frame = 0
 268              		@ frame_needed = 1, uses_anonymous_args = 0
 269 0000 80B5     		push	{r7, lr}
 270              		.cfi_def_cfa_offset 8
 271              		.cfi_offset 7, -8
 272              		.cfi_offset 14, -4
 273 0002 00AF     		add	r7, sp, #0
 274              		.cfi_def_cfa_register 7
  51:motors.c      ****     PWM_1_WriteCompare(currentFLeftSpeed + 2);
 275              		.loc 1 51 0
 276 0004 084B     		ldr	r3, .L18
 277 0006 1B68     		ldr	r3, [r3]
 278 0008 DBB2     		uxtb	r3, r3
 279 000a 0233     		adds	r3, r3, #2
 280 000c DBB2     		uxtb	r3, r3
 281 000e 1846     		mov	r0, r3
 282 0010 FFF7FEFF 		bl	PWM_1_WriteCompare
  52:motors.c      ****     PWM_2_WriteCompare(currentFRightSpeed - 2);
 283              		.loc 1 52 0
 284 0014 054B     		ldr	r3, .L18+4
 285 0016 1B68     		ldr	r3, [r3]
 286 0018 DBB2     		uxtb	r3, r3
 287 001a 023B     		subs	r3, r3, #2
 288 001c DBB2     		uxtb	r3, r3
 289 001e 1846     		mov	r0, r3
 290 0020 FFF7FEFF 		bl	PWM_2_WriteCompare
ARM GAS  C:\Users\hsal869\AppData\Local\Temp\ccwZ4jCv.s 			page 7


  53:motors.c      **** }
 291              		.loc 1 53 0
 292 0024 00BF     		nop
 293 0026 80BD     		pop	{r7, pc}
 294              	.L19:
 295              		.align	2
 296              	.L18:
 297 0028 00000000 		.word	currentFLeftSpeed
 298 002c 00000000 		.word	currentFRightSpeed
 299              		.cfi_endproc
 300              	.LFE69:
 301              		.size	adjustRight, .-adjustRight
 302              		.section	.text.turnLeft,"ax",%progbits
 303              		.align	2
 304              		.global	turnLeft
 305              		.thumb
 306              		.thumb_func
 307              		.type	turnLeft, %function
 308              	turnLeft:
 309              	.LFB70:
  54:motors.c      **** 
  55:motors.c      **** void turnLeft() { 
 310              		.loc 1 55 0
 311              		.cfi_startproc
 312              		@ args = 0, pretend = 0, frame = 0
 313              		@ frame_needed = 1, uses_anonymous_args = 0
 314 0000 80B5     		push	{r7, lr}
 315              		.cfi_def_cfa_offset 8
 316              		.cfi_offset 7, -8
 317              		.cfi_offset 14, -4
 318 0002 00AF     		add	r7, sp, #0
 319              		.cfi_def_cfa_register 7
  56:motors.c      ****     
  57:motors.c      ****     PWM_1_WriteCompare(125 - (currentFRightSpeed - 125) + 1) ; //was 11, changed as I think the val
 320              		.loc 1 57 0
 321 0004 094B     		ldr	r3, .L21
 322 0006 1B68     		ldr	r3, [r3]
 323 0008 DAB2     		uxtb	r2, r3
 324 000a 6FF00403 		mvn	r3, #4
 325 000e 9B1A     		subs	r3, r3, r2
 326 0010 DBB2     		uxtb	r3, r3
 327 0012 1846     		mov	r0, r3
 328 0014 FFF7FEFF 		bl	PWM_1_WriteCompare
  58:motors.c      ****     PWM_2_WriteCompare(currentFRightSpeed - 1); //was 11, changed as I think the value becomes too 
 329              		.loc 1 58 0
 330 0018 044B     		ldr	r3, .L21
 331 001a 1B68     		ldr	r3, [r3]
 332 001c DBB2     		uxtb	r3, r3
 333 001e 013B     		subs	r3, r3, #1
 334 0020 DBB2     		uxtb	r3, r3
 335 0022 1846     		mov	r0, r3
 336 0024 FFF7FEFF 		bl	PWM_2_WriteCompare
  59:motors.c      **** }
 337              		.loc 1 59 0
 338 0028 00BF     		nop
 339 002a 80BD     		pop	{r7, pc}
 340              	.L22:
ARM GAS  C:\Users\hsal869\AppData\Local\Temp\ccwZ4jCv.s 			page 8


 341              		.align	2
 342              	.L21:
 343 002c 00000000 		.word	currentFRightSpeed
 344              		.cfi_endproc
 345              	.LFE70:
 346              		.size	turnLeft, .-turnLeft
 347              		.section	.text.turnRight,"ax",%progbits
 348              		.align	2
 349              		.global	turnRight
 350              		.thumb
 351              		.thumb_func
 352              		.type	turnRight, %function
 353              	turnRight:
 354              	.LFB71:
  60:motors.c      **** //193 144
  61:motors.c      **** void turnRight() { 
 355              		.loc 1 61 0
 356              		.cfi_startproc
 357              		@ args = 0, pretend = 0, frame = 0
 358              		@ frame_needed = 1, uses_anonymous_args = 0
 359 0000 80B5     		push	{r7, lr}
 360              		.cfi_def_cfa_offset 8
 361              		.cfi_offset 7, -8
 362              		.cfi_offset 14, -4
 363 0002 00AF     		add	r7, sp, #0
 364              		.cfi_def_cfa_register 7
  62:motors.c      ****     PWM_1_WriteCompare(currentFRightSpeed - 1);  //was 11, changed as I think the value becomes too
 365              		.loc 1 62 0
 366 0004 094B     		ldr	r3, .L24
 367 0006 1B68     		ldr	r3, [r3]
 368 0008 DBB2     		uxtb	r3, r3
 369 000a 013B     		subs	r3, r3, #1
 370 000c DBB2     		uxtb	r3, r3
 371 000e 1846     		mov	r0, r3
 372 0010 FFF7FEFF 		bl	PWM_1_WriteCompare
  63:motors.c      ****     PWM_2_WriteCompare(125 - (currentFRightSpeed - 125) + 1); //was 11, changed as I think the valu
 373              		.loc 1 63 0
 374 0014 054B     		ldr	r3, .L24
 375 0016 1B68     		ldr	r3, [r3]
 376 0018 DAB2     		uxtb	r2, r3
 377 001a 6FF00403 		mvn	r3, #4
 378 001e 9B1A     		subs	r3, r3, r2
 379 0020 DBB2     		uxtb	r3, r3
 380 0022 1846     		mov	r0, r3
 381 0024 FFF7FEFF 		bl	PWM_2_WriteCompare
  64:motors.c      **** }
 382              		.loc 1 64 0
 383 0028 00BF     		nop
 384 002a 80BD     		pop	{r7, pc}
 385              	.L25:
 386              		.align	2
 387              	.L24:
 388 002c 00000000 		.word	currentFRightSpeed
 389              		.cfi_endproc
 390              	.LFE71:
 391              		.size	turnRight, .-turnRight
 392              		.text
ARM GAS  C:\Users\hsal869\AppData\Local\Temp\ccwZ4jCv.s 			page 9


 393              	.Letext0:
 394              		.file 2 "c:\\program files (x86)\\cypress\\psoc creator\\4.2\\psoc creator\\import\\gnu\\arm\\5.4.
 395              		.file 3 "c:\\program files (x86)\\cypress\\psoc creator\\4.2\\psoc creator\\import\\gnu\\arm\\5.4.
 396              		.file 4 "Generated_Source\\PSoC5/core_cm3.h"