ARM GAS  C:\Users\lger522\AppData\Local\Temp\ccu7wruq.s 			page 1


   1              		.syntax unified
   2              		.cpu cortex-m3
   3              		.fpu softvfp
   4              		.eabi_attribute 20, 1
   5              		.eabi_attribute 21, 1
   6              		.eabi_attribute 23, 3
   7              		.eabi_attribute 24, 1
   8              		.eabi_attribute 25, 1
   9              		.eabi_attribute 26, 1
  10              		.eabi_attribute 30, 6
  11              		.eabi_attribute 34, 1
  12              		.eabi_attribute 18, 4
  13              		.thumb
  14              		.syntax unified
  15              		.file	"pathfind.c"
  16              		.text
  17              	.Ltext0:
  18              		.cfi_sections	.debug_frame
  19              		.global	map
  20              		.data
  21              		.align	2
  22              		.type	map, %object
  23              		.size	map, 285
  24              	map:
  25 0000 01       		.byte	1
  26 0001 01       		.byte	1
  27 0002 01       		.byte	1
  28 0003 01       		.byte	1
  29 0004 01       		.byte	1
  30 0005 01       		.byte	1
  31 0006 01       		.byte	1
  32 0007 01       		.byte	1
  33 0008 01       		.byte	1
  34 0009 01       		.byte	1
  35 000a 01       		.byte	1
  36 000b 01       		.byte	1
  37 000c 01       		.byte	1
  38 000d 01       		.byte	1
  39 000e 01       		.byte	1
  40 000f 01       		.byte	1
  41 0010 01       		.byte	1
  42 0011 01       		.byte	1
  43 0012 01       		.byte	1
  44 0013 01       		.byte	1
  45 0014 00       		.byte	0
  46 0015 00       		.byte	0
  47 0016 00       		.byte	0
  48 0017 00       		.byte	0
  49 0018 00       		.byte	0
  50 0019 01       		.byte	1
  51 001a 00       		.byte	0
  52 001b 00       		.byte	0
  53 001c 00       		.byte	0
  54 001d 00       		.byte	0
  55 001e 00       		.byte	0
  56 001f 00       		.byte	0
  57 0020 00       		.byte	0
ARM GAS  C:\Users\lger522\AppData\Local\Temp\ccu7wruq.s 			page 2


  58 0021 00       		.byte	0
  59 0022 00       		.byte	0
  60 0023 00       		.byte	0
  61 0024 00       		.byte	0
  62 0025 01       		.byte	1
  63 0026 01       		.byte	1
  64 0027 01       		.byte	1
  65 0028 01       		.byte	1
  66 0029 01       		.byte	1
  67 002a 01       		.byte	1
  68 002b 00       		.byte	0
  69 002c 01       		.byte	1
  70 002d 00       		.byte	0
  71 002e 01       		.byte	1
  72 002f 01       		.byte	1
  73 0030 01       		.byte	1
  74 0031 01       		.byte	1
  75 0032 01       		.byte	1
  76 0033 01       		.byte	1
  77 0034 01       		.byte	1
  78 0035 00       		.byte	0
  79 0036 01       		.byte	1
  80 0037 00       		.byte	0
  81 0038 01       		.byte	1
  82 0039 01       		.byte	1
  83 003a 00       		.byte	0
  84 003b 00       		.byte	0
  85 003c 00       		.byte	0
  86 003d 00       		.byte	0
  87 003e 00       		.byte	0
  88 003f 00       		.byte	0
  89 0040 00       		.byte	0
  90 0041 00       		.byte	0
  91 0042 00       		.byte	0
  92 0043 00       		.byte	0
  93 0044 00       		.byte	0
  94 0045 00       		.byte	0
  95 0046 00       		.byte	0
  96 0047 01       		.byte	1
  97 0048 00       		.byte	0
  98 0049 01       		.byte	1
  99 004a 00       		.byte	0
 100 004b 01       		.byte	1
 101 004c 01       		.byte	1
 102 004d 00       		.byte	0
 103 004e 01       		.byte	1
 104 004f 00       		.byte	0
 105 0050 01       		.byte	1
 106 0051 01       		.byte	1
 107 0052 01       		.byte	1
 108 0053 01       		.byte	1
 109 0054 01       		.byte	1
 110 0055 00       		.byte	0
 111 0056 01       		.byte	1
 112 0057 00       		.byte	0
 113 0058 01       		.byte	1
 114 0059 01       		.byte	1
ARM GAS  C:\Users\lger522\AppData\Local\Temp\ccu7wruq.s 			page 3


 115 005a 01       		.byte	1
 116 005b 00       		.byte	0
 117 005c 01       		.byte	1
 118 005d 00       		.byte	0
 119 005e 01       		.byte	1
 120 005f 01       		.byte	1
 121 0060 00       		.byte	0
 122 0061 01       		.byte	1
 123 0062 00       		.byte	0
 124 0063 00       		.byte	0
 125 0064 00       		.byte	0
 126 0065 01       		.byte	1
 127 0066 00       		.byte	0
 128 0067 00       		.byte	0
 129 0068 00       		.byte	0
 130 0069 01       		.byte	1
 131 006a 00       		.byte	0
 132 006b 01       		.byte	1
 133 006c 00       		.byte	0
 134 006d 00       		.byte	0
 135 006e 00       		.byte	0
 136 006f 01       		.byte	1
 137 0070 00       		.byte	0
 138 0071 01       		.byte	1
 139 0072 01       		.byte	1
 140 0073 00       		.byte	0
 141 0074 01       		.byte	1
 142 0075 01       		.byte	1
 143 0076 01       		.byte	1
 144 0077 00       		.byte	0
 145 0078 01       		.byte	1
 146 0079 00       		.byte	0
 147 007a 01       		.byte	1
 148 007b 00       		.byte	0
 149 007c 01       		.byte	1
 150 007d 00       		.byte	0
 151 007e 01       		.byte	1
 152 007f 00       		.byte	0
 153 0080 01       		.byte	1
 154 0081 01       		.byte	1
 155 0082 01       		.byte	1
 156 0083 00       		.byte	0
 157 0084 01       		.byte	1
 158 0085 01       		.byte	1
 159 0086 00       		.byte	0
 160 0087 00       		.byte	0
 161 0088 00       		.byte	0
 162 0089 00       		.byte	0
 163 008a 00       		.byte	0
 164 008b 01       		.byte	1
 165 008c 00       		.byte	0
 166 008d 01       		.byte	1
 167 008e 00       		.byte	0
 168 008f 01       		.byte	1
 169 0090 00       		.byte	0
 170 0091 01       		.byte	1
 171 0092 00       		.byte	0
ARM GAS  C:\Users\lger522\AppData\Local\Temp\ccu7wruq.s 			page 4


 172 0093 01       		.byte	1
 173 0094 00       		.byte	0
 174 0095 00       		.byte	0
 175 0096 00       		.byte	0
 176 0097 01       		.byte	1
 177 0098 01       		.byte	1
 178 0099 00       		.byte	0
 179 009a 01       		.byte	1
 180 009b 01       		.byte	1
 181 009c 01       		.byte	1
 182 009d 01       		.byte	1
 183 009e 01       		.byte	1
 184 009f 00       		.byte	0
 185 00a0 01       		.byte	1
 186 00a1 00       		.byte	0
 187 00a2 01       		.byte	1
 188 00a3 01       		.byte	1
 189 00a4 01       		.byte	1
 190 00a5 00       		.byte	0
 191 00a6 01       		.byte	1
 192 00a7 00       		.byte	0
 193 00a8 01       		.byte	1
 194 00a9 01       		.byte	1
 195 00aa 01       		.byte	1
 196 00ab 01       		.byte	1
 197 00ac 00       		.byte	0
 198 00ad 00       		.byte	0
 199 00ae 00       		.byte	0
 200 00af 00       		.byte	0
 201 00b0 00       		.byte	0
 202 00b1 00       		.byte	0
 203 00b2 00       		.byte	0
 204 00b3 01       		.byte	1
 205 00b4 00       		.byte	0
 206 00b5 00       		.byte	0
 207 00b6 00       		.byte	0
 208 00b7 01       		.byte	1
 209 00b8 00       		.byte	0
 210 00b9 01       		.byte	1
 211 00ba 00       		.byte	0
 212 00bb 00       		.byte	0
 213 00bc 00       		.byte	0
 214 00bd 01       		.byte	1
 215 00be 01       		.byte	1
 216 00bf 01       		.byte	1
 217 00c0 01       		.byte	1
 218 00c1 01       		.byte	1
 219 00c2 01       		.byte	1
 220 00c3 01       		.byte	1
 221 00c4 01       		.byte	1
 222 00c5 00       		.byte	0
 223 00c6 01       		.byte	1
 224 00c7 01       		.byte	1
 225 00c8 01       		.byte	1
 226 00c9 00       		.byte	0
 227 00ca 01       		.byte	1
 228 00cb 00       		.byte	0
ARM GAS  C:\Users\lger522\AppData\Local\Temp\ccu7wruq.s 			page 5


 229 00cc 01       		.byte	1
 230 00cd 01       		.byte	1
 231 00ce 01       		.byte	1
 232 00cf 00       		.byte	0
 233 00d0 01       		.byte	1
 234 00d1 01       		.byte	1
 235 00d2 00       		.byte	0
 236 00d3 00       		.byte	0
 237 00d4 00       		.byte	0
 238 00d5 00       		.byte	0
 239 00d6 00       		.byte	0
 240 00d7 00       		.byte	0
 241 00d8 00       		.byte	0
 242 00d9 00       		.byte	0
 243 00da 00       		.byte	0
 244 00db 01       		.byte	1
 245 00dc 00       		.byte	0
 246 00dd 01       		.byte	1
 247 00de 00       		.byte	0
 248 00df 00       		.byte	0
 249 00e0 00       		.byte	0
 250 00e1 00       		.byte	0
 251 00e2 00       		.byte	0
 252 00e3 01       		.byte	1
 253 00e4 01       		.byte	1
 254 00e5 00       		.byte	0
 255 00e6 01       		.byte	1
 256 00e7 01       		.byte	1
 257 00e8 01       		.byte	1
 258 00e9 01       		.byte	1
 259 00ea 01       		.byte	1
 260 00eb 01       		.byte	1
 261 00ec 01       		.byte	1
 262 00ed 00       		.byte	0
 263 00ee 01       		.byte	1
 264 00ef 00       		.byte	0
 265 00f0 01       		.byte	1
 266 00f1 01       		.byte	1
 267 00f2 01       		.byte	1
 268 00f3 01       		.byte	1
 269 00f4 01       		.byte	1
 270 00f5 00       		.byte	0
 271 00f6 01       		.byte	1
 272 00f7 01       		.byte	1
 273 00f8 00       		.byte	0
 274 00f9 00       		.byte	0
 275 00fa 00       		.byte	0
 276 00fb 00       		.byte	0
 277 00fc 00       		.byte	0
 278 00fd 00       		.byte	0
 279 00fe 00       		.byte	0
 280 00ff 01       		.byte	1
 281 0100 00       		.byte	0
 282 0101 00       		.byte	0
 283 0102 00       		.byte	0
 284 0103 00       		.byte	0
 285 0104 00       		.byte	0
ARM GAS  C:\Users\lger522\AppData\Local\Temp\ccu7wruq.s 			page 6


 286 0105 00       		.byte	0
 287 0106 00       		.byte	0
 288 0107 00       		.byte	0
 289 0108 00       		.byte	0
 290 0109 01       		.byte	1
 291 010a 01       		.byte	1
 292 010b 01       		.byte	1
 293 010c 01       		.byte	1
 294 010d 01       		.byte	1
 295 010e 01       		.byte	1
 296 010f 01       		.byte	1
 297 0110 01       		.byte	1
 298 0111 01       		.byte	1
 299 0112 01       		.byte	1
 300 0113 01       		.byte	1
 301 0114 01       		.byte	1
 302 0115 01       		.byte	1
 303 0116 01       		.byte	1
 304 0117 01       		.byte	1
 305 0118 01       		.byte	1
 306 0119 01       		.byte	1
 307 011a 01       		.byte	1
 308 011b 01       		.byte	1
 309 011c 01       		.byte	1
 310              		.global	start_pos
 311 011d 000000   		.align	2
 312              		.type	start_pos, %object
 313              		.size	start_pos, 2
 314              	start_pos:
 315 0120 01       		.byte	1
 316 0121 01       		.byte	1
 317              		.global	food_list
 318 0122 0000     		.align	2
 319              		.type	food_list, %object
 320              		.size	food_list, 10
 321              	food_list:
 322 0124 01       		.byte	1
 323 0125 09       		.byte	9
 324 0126 05       		.byte	5
 325 0127 05       		.byte	5
 326 0128 07       		.byte	7
 327 0129 01       		.byte	1
 328 012a 0D       		.byte	13
 329 012b 05       		.byte	5
 330 012c 09       		.byte	9
 331 012d 09       		.byte	9
 332              		.global	instructionCounter
 333              		.bss
 334              		.align	2
 335              		.type	instructionCounter, %object
 336              		.size	instructionCounter, 4
 337              	instructionCounter:
 338 0000 00000000 		.space	4
 339              		.global	distanceCounter
 340              		.align	2
 341              		.type	distanceCounter, %object
 342              		.size	distanceCounter, 4
ARM GAS  C:\Users\lger522\AppData\Local\Temp\ccu7wruq.s 			page 7


 343              	distanceCounter:
 344 0004 00000000 		.space	4
 345              		.global	squaresCounter
 346              		.align	2
 347              		.type	squaresCounter, %object
 348              		.size	squaresCounter, 4
 349              	squaresCounter:
 350 0008 00000000 		.space	4
 351              		.global	robotDirection
 352              		.align	2
 353              		.type	robotDirection, %object
 354              		.size	robotDirection, 4
 355              	robotDirection:
 356 000c 00000000 		.space	4
 357              		.global	firstValidInstruction
 358              		.align	2
 359              		.type	firstValidInstruction, %object
 360              		.size	firstValidInstruction, 4
 361              	firstValidInstruction:
 362 0010 00000000 		.space	4
 363              		.global	startPos
 364              		.data
 365 012e 0000     		.align	2
 366              		.type	startPos, %object
 367              		.size	startPos, 8
 368              	startPos:
 369 0130 01000000 		.word	1
 370 0134 01000000 		.word	1
 371              		.section	.text.pathfind,"ax",%progbits
 372              		.align	2
 373              		.global	pathfind
 374              		.thumb
 375              		.thumb_func
 376              		.type	pathfind, %function
 377              	pathfind:
 378              	.LFB64:
 379              		.file 1 "pathfind.c"
   1:pathfind.c    **** /* ========================================
   2:pathfind.c    ****  *
   3:pathfind.c    ****  * Copyright YOUR COMPANY, THE YEAR
   4:pathfind.c    ****  * All Rights Reserved
   5:pathfind.c    ****  * UNPUBLISHED, LICENSED SOFTWARE.
   6:pathfind.c    ****  *
   7:pathfind.c    ****  * CONFIDENTIAL AND PROPRIETARY INFORMATION
   8:pathfind.c    ****  * WHICH IS THE PROPERTY OF your company.
   9:pathfind.c    ****  *
  10:pathfind.c    ****  * ========================================
  11:pathfind.c    ****  */
  12:pathfind.c    **** #include <project.h>
  13:pathfind.c    **** 
  14:pathfind.c    **** #include <stdio.h>
  15:pathfind.c    **** 
  16:pathfind.c    **** #include "pathfind.h"
  17:pathfind.c    **** 
  18:pathfind.c    **** #include "map.h"
  19:pathfind.c    **** 
  20:pathfind.c    **** #define MAX_ROWS 15
ARM GAS  C:\Users\lger522\AppData\Local\Temp\ccu7wruq.s 			page 8


  21:pathfind.c    **** #define MAX_COLS 19
  22:pathfind.c    **** 
  23:pathfind.c    **** int instructionCounter = 0;
  24:pathfind.c    **** int distanceCounter = 0;
  25:pathfind.c    **** int squaresCounter = 0;
  26:pathfind.c    **** int robotDirection = 0;
  27:pathfind.c    **** int firstValidInstruction = 0;
  28:pathfind.c    **** 
  29:pathfind.c    **** int startPos[2] = {
  30:pathfind.c    ****   1,
  31:pathfind.c    ****   1
  32:pathfind.c    **** };
  33:pathfind.c    **** 
  34:pathfind.c    **** void pathfind(unsigned char * instruction, unsigned char * distance, unsigned char( * squares)[2]) 
 380              		.loc 1 34 0
 381              		.cfi_startproc
 382              		@ args = 0, pretend = 0, frame = 24
 383              		@ frame_needed = 1, uses_anonymous_args = 0
 384 0000 80B5     		push	{r7, lr}
 385              		.cfi_def_cfa_offset 8
 386              		.cfi_offset 7, -8
 387              		.cfi_offset 14, -4
 388 0002 86B0     		sub	sp, sp, #24
 389              		.cfi_def_cfa_offset 32
 390 0004 00AF     		add	r7, sp, #0
 391              		.cfi_def_cfa_register 7
 392 0006 F860     		str	r0, [r7, #12]
 393 0008 B960     		str	r1, [r7, #8]
 394 000a 7A60     		str	r2, [r7, #4]
 395              	.LBB2:
  35:pathfind.c    ****   for (int i = 4; i > -1; i--) {
 396              		.loc 1 35 0
 397 000c 0423     		movs	r3, #4
 398 000e 7B61     		str	r3, [r7, #20]
 399 0010 29E0     		b	.L2
 400              	.L5:
  36:pathfind.c    ****     if (i == 0) {
 401              		.loc 1 36 0
 402 0012 7B69     		ldr	r3, [r7, #20]
 403 0014 002B     		cmp	r3, #0
 404 0016 0AD1     		bne	.L3
  37:pathfind.c    ****         startPos[0] = start_pos[0];
 405              		.loc 1 37 0
 406 0018 194B     		ldr	r3, .L6
 407 001a 1B78     		ldrb	r3, [r3]	@ zero_extendqisi2
 408 001c 1A46     		mov	r2, r3
 409 001e 194B     		ldr	r3, .L6+4
 410 0020 1A60     		str	r2, [r3]
  38:pathfind.c    ****         startPos[1] = start_pos[1];
 411              		.loc 1 38 0
 412 0022 174B     		ldr	r3, .L6
 413 0024 5B78     		ldrb	r3, [r3, #1]	@ zero_extendqisi2
 414 0026 1A46     		mov	r2, r3
 415 0028 164B     		ldr	r3, .L6+4
 416 002a 5A60     		str	r2, [r3, #4]
 417 002c 10E0     		b	.L4
 418              	.L3:
ARM GAS  C:\Users\lger522\AppData\Local\Temp\ccu7wruq.s 			page 9


  39:pathfind.c    ****     } else {
  40:pathfind.c    ****         startPos[0] = food_list[i-1][0];
 419              		.loc 1 40 0
 420 002e 7B69     		ldr	r3, [r7, #20]
 421 0030 013B     		subs	r3, r3, #1
 422 0032 154A     		ldr	r2, .L6+8
 423 0034 12F81330 		ldrb	r3, [r2, r3, lsl #1]	@ zero_extendqisi2
 424 0038 1A46     		mov	r2, r3
 425 003a 124B     		ldr	r3, .L6+4
 426 003c 1A60     		str	r2, [r3]
  41:pathfind.c    ****         startPos[1] = food_list[i-1][1];
 427              		.loc 1 41 0
 428 003e 7B69     		ldr	r3, [r7, #20]
 429 0040 013B     		subs	r3, r3, #1
 430 0042 114A     		ldr	r2, .L6+8
 431 0044 5B00     		lsls	r3, r3, #1
 432 0046 1344     		add	r3, r3, r2
 433 0048 5B78     		ldrb	r3, [r3, #1]	@ zero_extendqisi2
 434 004a 1A46     		mov	r2, r3
 435 004c 0D4B     		ldr	r3, .L6+4
 436 004e 5A60     		str	r2, [r3, #4]
 437              	.L4:
  42:pathfind.c    ****     }
  43:pathfind.c    ****     bfs(squares, food_list[i]);
 438              		.loc 1 43 0 discriminator 2
 439 0050 7B69     		ldr	r3, [r7, #20]
 440 0052 5B00     		lsls	r3, r3, #1
 441 0054 0C4A     		ldr	r2, .L6+8
 442 0056 1344     		add	r3, r3, r2
 443 0058 1946     		mov	r1, r3
 444 005a 7868     		ldr	r0, [r7, #4]
 445 005c FFF7FEFF 		bl	bfs
  35:pathfind.c    ****     if (i == 0) {
 446              		.loc 1 35 0 discriminator 2
 447 0060 7B69     		ldr	r3, [r7, #20]
 448 0062 013B     		subs	r3, r3, #1
 449 0064 7B61     		str	r3, [r7, #20]
 450              	.L2:
  35:pathfind.c    ****     if (i == 0) {
 451              		.loc 1 35 0 is_stmt 0 discriminator 1
 452 0066 7B69     		ldr	r3, [r7, #20]
 453 0068 002B     		cmp	r3, #0
 454 006a D2DA     		bge	.L5
 455              	.LBE2:
  44:pathfind.c    ****   }
  45:pathfind.c    ****   generateInstructionList(instruction, distance, squares);
 456              		.loc 1 45 0 is_stmt 1
 457 006c 7A68     		ldr	r2, [r7, #4]
 458 006e B968     		ldr	r1, [r7, #8]
 459 0070 F868     		ldr	r0, [r7, #12]
 460 0072 FFF7FEFF 		bl	generateInstructionList
  46:pathfind.c    **** 
  47:pathfind.c    **** }
 461              		.loc 1 47 0
 462 0076 00BF     		nop
 463 0078 1837     		adds	r7, r7, #24
 464              		.cfi_def_cfa_offset 8
ARM GAS  C:\Users\lger522\AppData\Local\Temp\ccu7wruq.s 			page 10


 465 007a BD46     		mov	sp, r7
 466              		.cfi_def_cfa_register 13
 467              		@ sp needed
 468 007c 80BD     		pop	{r7, pc}
 469              	.L7:
 470 007e 00BF     		.align	2
 471              	.L6:
 472 0080 00000000 		.word	start_pos
 473 0084 00000000 		.word	startPos
 474 0088 00000000 		.word	food_list
 475              		.cfi_endproc
 476              	.LFE64:
 477              		.size	pathfind, .-pathfind
 478              		.section	.text.bfs,"ax",%progbits
 479              		.align	2
 480              		.global	bfs
 481              		.thumb
 482              		.thumb_func
 483              		.type	bfs, %function
 484              	bfs:
 485              	.LFB65:
  48:pathfind.c    **** 
  49:pathfind.c    **** void bfs(unsigned char( * squares)[2], unsigned char targetlocation[2]) {
 486              		.loc 1 49 0
 487              		.cfi_startproc
 488              		@ args = 0, pretend = 0, frame = 4944
 489              		@ frame_needed = 1, uses_anonymous_args = 0
 490 0000 80B5     		push	{r7, lr}
 491              		.cfi_def_cfa_offset 8
 492              		.cfi_offset 7, -8
 493              		.cfi_offset 14, -4
 494 0002 ADF59A5D 		sub	sp, sp, #4928
 495              		.cfi_def_cfa_offset 4936
 496 0006 84B0     		sub	sp, sp, #16
 497              		.cfi_def_cfa_offset 4952
 498 0008 00AF     		add	r7, sp, #0
 499              		.cfi_def_cfa_register 7
 500 000a 07F11003 		add	r3, r7, #16
 501 000e 0C3B     		subs	r3, r3, #12
 502 0010 1860     		str	r0, [r3]
 503 0012 07F11003 		add	r3, r7, #16
 504 0016 103B     		subs	r3, r3, #16
 505 0018 1960     		str	r1, [r3]
  50:pathfind.c    **** 
  51:pathfind.c    ****   int i = 0;
 506              		.loc 1 51 0
 507 001a 0023     		movs	r3, #0
 508 001c 07F59A52 		add	r2, r7, #4928
 509 0020 02F10C02 		add	r2, r2, #12
 510 0024 1360     		str	r3, [r2]
  52:pathfind.c    **** 
  53:pathfind.c    ****   // Initialize data structures for BFS
  54:pathfind.c    ****   int queue[MAX_ROWS * MAX_COLS][2];
  55:pathfind.c    ****   int front = 0, rear = 0;
 511              		.loc 1 55 0
 512 0026 0023     		movs	r3, #0
 513 0028 07F59A52 		add	r2, r7, #4928
ARM GAS  C:\Users\lger522\AppData\Local\Temp\ccu7wruq.s 			page 11


 514 002c 02F10802 		add	r2, r2, #8
 515 0030 1360     		str	r3, [r2]
 516 0032 0023     		movs	r3, #0
 517 0034 07F59A52 		add	r2, r7, #4928
 518 0038 02F10402 		add	r2, r2, #4
 519 003c 1360     		str	r3, [r2]
 520              	.LBB3:
  56:pathfind.c    ****   unsigned char visited[15][19]; // Declare the "visited" array with the same dimensions
  57:pathfind.c    **** 
  58:pathfind.c    ****   // Copy the contents of the "map" array to the "visited" array
  59:pathfind.c    ****   for (int i = 0; i < 15; i++) {
 521              		.loc 1 59 0
 522 003e 0023     		movs	r3, #0
 523 0040 07F59A52 		add	r2, r7, #4928
 524 0044 1360     		str	r3, [r2]
 525 0046 43E0     		b	.L9
 526              	.L12:
 527              	.LBB4:
  60:pathfind.c    ****     for (int j = 0; j < 19; j++) {
 528              		.loc 1 60 0
 529 0048 0023     		movs	r3, #0
 530 004a 07F59952 		add	r2, r7, #4896
 531 004e 02F11C02 		add	r2, r2, #28
 532 0052 1360     		str	r3, [r2]
 533 0054 2EE0     		b	.L10
 534              	.L11:
  61:pathfind.c    ****       visited[i][j] = map[i][j];
 535              		.loc 1 61 0 discriminator 3
 536 0056 9249     		ldr	r1, .L29
 537 0058 07F59A53 		add	r3, r7, #4928
 538 005c 1A68     		ldr	r2, [r3]
 539 005e 1346     		mov	r3, r2
 540 0060 DB00     		lsls	r3, r3, #3
 541 0062 1344     		add	r3, r3, r2
 542 0064 5B00     		lsls	r3, r3, #1
 543 0066 1344     		add	r3, r3, r2
 544 0068 CA18     		adds	r2, r1, r3
 545 006a 07F59953 		add	r3, r7, #4896
 546 006e 03F11C03 		add	r3, r3, #28
 547 0072 1B68     		ldr	r3, [r3]
 548 0074 1344     		add	r3, r3, r2
 549 0076 1878     		ldrb	r0, [r3]	@ zero_extendqisi2
 550 0078 07F51161 		add	r1, r7, #2320
 551 007c 07F59A53 		add	r3, r7, #4928
 552 0080 1A68     		ldr	r2, [r3]
 553 0082 1346     		mov	r3, r2
 554 0084 DB00     		lsls	r3, r3, #3
 555 0086 1344     		add	r3, r3, r2
 556 0088 5B00     		lsls	r3, r3, #1
 557 008a 1344     		add	r3, r3, r2
 558 008c CA18     		adds	r2, r1, r3
 559 008e 07F59953 		add	r3, r7, #4896
 560 0092 03F11C03 		add	r3, r3, #28
 561 0096 1B68     		ldr	r3, [r3]
 562 0098 1344     		add	r3, r3, r2
 563 009a 0246     		mov	r2, r0
 564 009c 1A70     		strb	r2, [r3]
ARM GAS  C:\Users\lger522\AppData\Local\Temp\ccu7wruq.s 			page 12


  60:pathfind.c    ****     for (int j = 0; j < 19; j++) {
 565              		.loc 1 60 0 discriminator 3
 566 009e 07F59953 		add	r3, r7, #4896
 567 00a2 03F11C03 		add	r3, r3, #28
 568 00a6 1B68     		ldr	r3, [r3]
 569 00a8 0133     		adds	r3, r3, #1
 570 00aa 07F59952 		add	r2, r7, #4896
 571 00ae 02F11C02 		add	r2, r2, #28
 572 00b2 1360     		str	r3, [r2]
 573              	.L10:
  60:pathfind.c    ****     for (int j = 0; j < 19; j++) {
 574              		.loc 1 60 0 is_stmt 0 discriminator 1
 575 00b4 07F59953 		add	r3, r7, #4896
 576 00b8 03F11C03 		add	r3, r3, #28
 577 00bc 1B68     		ldr	r3, [r3]
 578 00be 122B     		cmp	r3, #18
 579 00c0 C9DD     		ble	.L11
 580              	.LBE4:
  59:pathfind.c    ****     for (int j = 0; j < 19; j++) {
 581              		.loc 1 59 0 is_stmt 1 discriminator 2
 582 00c2 07F59A53 		add	r3, r7, #4928
 583 00c6 1B68     		ldr	r3, [r3]
 584 00c8 0133     		adds	r3, r3, #1
 585 00ca 07F59A52 		add	r2, r7, #4928
 586 00ce 1360     		str	r3, [r2]
 587              	.L9:
  59:pathfind.c    ****     for (int j = 0; j < 19; j++) {
 588              		.loc 1 59 0 is_stmt 0 discriminator 1
 589 00d0 07F59A53 		add	r3, r7, #4928
 590 00d4 1B68     		ldr	r3, [r3]
 591 00d6 0E2B     		cmp	r3, #14
 592 00d8 B6DD     		ble	.L12
 593              	.LBE3:
  62:pathfind.c    ****     }
  63:pathfind.c    ****   }
  64:pathfind.c    ****   int steps[MAX_ROWS][MAX_COLS] = {
 594              		.loc 1 64 0 is_stmt 1
 595 00da 07F29C43 		addw	r3, r7, #1180
 596 00de 1846     		mov	r0, r3
 597 00e0 40F27443 		movw	r3, #1140
 598 00e4 1A46     		mov	r2, r3
 599 00e6 0021     		movs	r1, #0
 600 00e8 FFF7FEFF 		bl	memset
  65:pathfind.c    ****     0
  66:pathfind.c    ****   };
  67:pathfind.c    **** 
  68:pathfind.c    ****   // Initialize parent set
  69:pathfind.c    ****   int parents[MAX_ROWS][MAX_COLS] = {
 601              		.loc 1 69 0
 602 00ec 07F13003 		add	r3, r7, #48
 603 00f0 083B     		subs	r3, r3, #8
 604 00f2 1846     		mov	r0, r3
 605 00f4 40F27443 		movw	r3, #1140
 606 00f8 1A46     		mov	r2, r3
 607 00fa 0021     		movs	r1, #0
 608 00fc FFF7FEFF 		bl	memset
  70:pathfind.c    ****     0
ARM GAS  C:\Users\lger522\AppData\Local\Temp\ccu7wruq.s 			page 13


  71:pathfind.c    ****   };
  72:pathfind.c    **** 
  73:pathfind.c    ****   // Define possible moves (up, down, left, right)
  74:pathfind.c    ****   //int dr[] = {-1, 1, 0, 0};
  75:pathfind.c    ****   //int dc[] = {0, 0, -1, 1};
  76:pathfind.c    **** 
  77:pathfind.c    ****   // Enqueue the start location
  78:pathfind.c    ****   queue[rear][0] = startPos[0];
 609              		.loc 1 78 0
 610 0100 684B     		ldr	r3, .L29+4
 611 0102 1968     		ldr	r1, [r3]
 612 0104 07F52363 		add	r3, r7, #2608
 613 0108 07F59A52 		add	r2, r7, #4928
 614 010c 02F10402 		add	r2, r2, #4
 615 0110 1268     		ldr	r2, [r2]
 616 0112 43F83210 		str	r1, [r3, r2, lsl #3]
  79:pathfind.c    ****   queue[rear][1] = startPos[1];
 617              		.loc 1 79 0
 618 0116 634B     		ldr	r3, .L29+4
 619 0118 5A68     		ldr	r2, [r3, #4]
 620 011a 07F52361 		add	r1, r7, #2608
 621 011e 07F59A53 		add	r3, r7, #4928
 622 0122 03F10403 		add	r3, r3, #4
 623 0126 1B68     		ldr	r3, [r3]
 624 0128 DB00     		lsls	r3, r3, #3
 625 012a 0B44     		add	r3, r3, r1
 626 012c 5A60     		str	r2, [r3, #4]
  80:pathfind.c    ****   rear++;
 627              		.loc 1 80 0
 628 012e 07F59A53 		add	r3, r7, #4928
 629 0132 03F10403 		add	r3, r3, #4
 630 0136 1B68     		ldr	r3, [r3]
 631 0138 0133     		adds	r3, r3, #1
 632 013a 07F59A52 		add	r2, r7, #4928
 633 013e 02F10402 		add	r2, r2, #4
 634 0142 1360     		str	r3, [r2]
  81:pathfind.c    **** 
  82:pathfind.c    ****   // BFS algorithm
  83:pathfind.c    ****   int finished = 0;
 635              		.loc 1 83 0
 636 0144 0023     		movs	r3, #0
 637 0146 07F59952 		add	r2, r7, #4896
 638 014a 02F10402 		add	r2, r2, #4
 639 014e 1360     		str	r3, [r2]
  84:pathfind.c    **** 
  85:pathfind.c    ****   int current_row = 0; //TODO maybe not needed
 640              		.loc 1 85 0
 641 0150 0023     		movs	r3, #0
 642 0152 07F59952 		add	r2, r7, #4896
 643 0156 02F11802 		add	r2, r2, #24
 644 015a 1360     		str	r3, [r2]
  86:pathfind.c    ****   int current_col = 0;
 645              		.loc 1 86 0
 646 015c 0023     		movs	r3, #0
 647 015e 07F59952 		add	r2, r7, #4896
 648 0162 02F11402 		add	r2, r2, #20
 649 0166 1360     		str	r3, [r2]
ARM GAS  C:\Users\lger522\AppData\Local\Temp\ccu7wruq.s 			page 14


  87:pathfind.c    **** 
  88:pathfind.c    ****   while (front < rear && !finished) { //TODO slightly different condition
 650              		.loc 1 88 0
 651 0168 18E2     		b	.L13
 652              	.L22:
 653              	.LBB5:
  89:pathfind.c    ****     // Process the current location
  90:pathfind.c    ****     current_row = queue[front][0];
 654              		.loc 1 90 0
 655 016a 07F52363 		add	r3, r7, #2608
 656 016e 07F59A52 		add	r2, r7, #4928
 657 0172 02F10802 		add	r2, r2, #8
 658 0176 1268     		ldr	r2, [r2]
 659 0178 53F83230 		ldr	r3, [r3, r2, lsl #3]
 660 017c 07F59952 		add	r2, r7, #4896
 661 0180 02F11802 		add	r2, r2, #24
 662 0184 1360     		str	r3, [r2]
  91:pathfind.c    ****     current_col = queue[front][1];
 663              		.loc 1 91 0
 664 0186 07F52362 		add	r2, r7, #2608
 665 018a 07F59A53 		add	r3, r7, #4928
 666 018e 03F10803 		add	r3, r3, #8
 667 0192 1B68     		ldr	r3, [r3]
 668 0194 DB00     		lsls	r3, r3, #3
 669 0196 1344     		add	r3, r3, r2
 670 0198 5B68     		ldr	r3, [r3, #4]
 671 019a 07F59952 		add	r2, r7, #4896
 672 019e 02F11402 		add	r2, r2, #20
 673 01a2 1360     		str	r3, [r2]
  92:pathfind.c    **** 
  93:pathfind.c    ****     front++; //dequeue
 674              		.loc 1 93 0
 675 01a4 07F59A53 		add	r3, r7, #4928
 676 01a8 03F10803 		add	r3, r3, #8
 677 01ac 1B68     		ldr	r3, [r3]
 678 01ae 0133     		adds	r3, r3, #1
 679 01b0 07F59A52 		add	r2, r7, #4928
 680 01b4 02F10802 		add	r2, r2, #8
 681 01b8 1360     		str	r3, [r2]
  94:pathfind.c    **** 
  95:pathfind.c    ****     visited[current_row][current_col] = 1;
 682              		.loc 1 95 0
 683 01ba 07F51161 		add	r1, r7, #2320
 684 01be 07F59953 		add	r3, r7, #4896
 685 01c2 03F11803 		add	r3, r3, #24
 686 01c6 1A68     		ldr	r2, [r3]
 687 01c8 1346     		mov	r3, r2
 688 01ca DB00     		lsls	r3, r3, #3
 689 01cc 1344     		add	r3, r3, r2
 690 01ce 5B00     		lsls	r3, r3, #1
 691 01d0 1344     		add	r3, r3, r2
 692 01d2 CA18     		adds	r2, r1, r3
 693 01d4 07F59953 		add	r3, r7, #4896
 694 01d8 03F11403 		add	r3, r3, #20
 695 01dc 1B68     		ldr	r3, [r3]
 696 01de 1344     		add	r3, r3, r2
 697 01e0 0122     		movs	r2, #1
ARM GAS  C:\Users\lger522\AppData\Local\Temp\ccu7wruq.s 			page 15


 698 01e2 1A70     		strb	r2, [r3]
  96:pathfind.c    **** 
  97:pathfind.c    ****     // Place a step at the current location 
  98:pathfind.c    ****     // placestep(queue[front - 1], i);
  99:pathfind.c    ****     i++;
 699              		.loc 1 99 0
 700 01e4 07F59A53 		add	r3, r7, #4928
 701 01e8 03F10C03 		add	r3, r3, #12
 702 01ec 1B68     		ldr	r3, [r3]
 703 01ee 0133     		adds	r3, r3, #1
 704 01f0 07F59A52 		add	r2, r7, #4928
 705 01f4 02F10C02 		add	r2, r2, #12
 706 01f8 1360     		str	r3, [r2]
 100:pathfind.c    ****     int neighbour_array[4][2];
 101:pathfind.c    **** 
 102:pathfind.c    ****     neighbour_array[0][0] = current_row + 1;
 707              		.loc 1 102 0
 708 01fa 07F59953 		add	r3, r7, #4896
 709 01fe 03F11803 		add	r3, r3, #24
 710 0202 1B68     		ldr	r3, [r3]
 711 0204 5A1C     		adds	r2, r3, #1
 712 0206 07F11003 		add	r3, r7, #16
 713 020a 083B     		subs	r3, r3, #8
 714 020c 1A60     		str	r2, [r3]
 103:pathfind.c    ****     neighbour_array[0][1] = current_col;
 715              		.loc 1 103 0
 716 020e 07F11003 		add	r3, r7, #16
 717 0212 083B     		subs	r3, r3, #8
 718 0214 07F59952 		add	r2, r7, #4896
 719 0218 02F11402 		add	r2, r2, #20
 720 021c 1268     		ldr	r2, [r2]
 721 021e 5A60     		str	r2, [r3, #4]
 104:pathfind.c    **** 
 105:pathfind.c    ****     neighbour_array[1][0] = current_row - 1;
 722              		.loc 1 105 0
 723 0220 07F59953 		add	r3, r7, #4896
 724 0224 03F11803 		add	r3, r3, #24
 725 0228 1B68     		ldr	r3, [r3]
 726 022a 5A1E     		subs	r2, r3, #1
 727 022c 07F11003 		add	r3, r7, #16
 728 0230 083B     		subs	r3, r3, #8
 729 0232 9A60     		str	r2, [r3, #8]
 106:pathfind.c    ****     neighbour_array[1][1] = current_col;
 730              		.loc 1 106 0
 731 0234 07F11003 		add	r3, r7, #16
 732 0238 083B     		subs	r3, r3, #8
 733 023a 07F59952 		add	r2, r7, #4896
 734 023e 02F11402 		add	r2, r2, #20
 735 0242 1268     		ldr	r2, [r2]
 736 0244 DA60     		str	r2, [r3, #12]
 107:pathfind.c    **** 
 108:pathfind.c    ****     neighbour_array[2][0] = current_row;
 737              		.loc 1 108 0
 738 0246 07F11003 		add	r3, r7, #16
 739 024a 083B     		subs	r3, r3, #8
 740 024c 07F59952 		add	r2, r7, #4896
 741 0250 02F11802 		add	r2, r2, #24
ARM GAS  C:\Users\lger522\AppData\Local\Temp\ccu7wruq.s 			page 16


 742 0254 1268     		ldr	r2, [r2]
 743 0256 1A61     		str	r2, [r3, #16]
 109:pathfind.c    ****     neighbour_array[2][1] = current_col + 1;
 744              		.loc 1 109 0
 745 0258 07F59953 		add	r3, r7, #4896
 746 025c 03F11403 		add	r3, r3, #20
 747 0260 1B68     		ldr	r3, [r3]
 748 0262 5A1C     		adds	r2, r3, #1
 749 0264 07F11003 		add	r3, r7, #16
 750 0268 083B     		subs	r3, r3, #8
 751 026a 5A61     		str	r2, [r3, #20]
 110:pathfind.c    **** 
 111:pathfind.c    ****     neighbour_array[3][0] = current_row;
 752              		.loc 1 111 0
 753 026c 07F11003 		add	r3, r7, #16
 754 0270 083B     		subs	r3, r3, #8
 755 0272 07F59952 		add	r2, r7, #4896
 756 0276 02F11802 		add	r2, r2, #24
 757 027a 1268     		ldr	r2, [r2]
 758 027c 9A61     		str	r2, [r3, #24]
 112:pathfind.c    ****     neighbour_array[3][1] = current_col - 1;
 759              		.loc 1 112 0
 760 027e 07F59953 		add	r3, r7, #4896
 761 0282 03F11403 		add	r3, r3, #20
 762 0286 1B68     		ldr	r3, [r3]
 763 0288 5A1E     		subs	r2, r3, #1
 764 028a 07F11003 		add	r3, r7, #16
 765 028e 083B     		subs	r3, r3, #8
 766 0290 DA61     		str	r2, [r3, #28]
 767              	.LBB6:
 113:pathfind.c    **** 
 114:pathfind.c    ****     // Explore neighboring cells
 115:pathfind.c    ****     for (int n = 0; n < 4; n++) {
 768              		.loc 1 115 0
 769 0292 0023     		movs	r3, #0
 770 0294 07F59952 		add	r2, r7, #4896
 771 0298 02F11002 		add	r2, r2, #16
 772 029c 1360     		str	r3, [r2]
 773 029e 53E1     		b	.L14
 774              	.L30:
 775              		.align	2
 776              	.L29:
 777 02a0 00000000 		.word	map
 778 02a4 00000000 		.word	startPos
 779              	.L19:
 780              	.LBB7:
 116:pathfind.c    ****       int nRow = neighbour_array[n][0];
 781              		.loc 1 116 0
 782 02a8 07F11003 		add	r3, r7, #16
 783 02ac 083B     		subs	r3, r3, #8
 784 02ae 07F59952 		add	r2, r7, #4896
 785 02b2 02F11002 		add	r2, r2, #16
 786 02b6 1268     		ldr	r2, [r2]
 787 02b8 53F83230 		ldr	r3, [r3, r2, lsl #3]
 788 02bc 07F59952 		add	r2, r7, #4896
 789 02c0 1360     		str	r3, [r2]
 117:pathfind.c    ****       int nCol = neighbour_array[n][1];
ARM GAS  C:\Users\lger522\AppData\Local\Temp\ccu7wruq.s 			page 17


 790              		.loc 1 117 0
 791 02c2 07F11002 		add	r2, r7, #16
 792 02c6 083A     		subs	r2, r2, #8
 793 02c8 07F59953 		add	r3, r7, #4896
 794 02cc 03F11003 		add	r3, r3, #16
 795 02d0 1B68     		ldr	r3, [r3]
 796 02d2 DB00     		lsls	r3, r3, #3
 797 02d4 1344     		add	r3, r3, r2
 798 02d6 5B68     		ldr	r3, [r3, #4]
 799 02d8 07F59852 		add	r2, r7, #4864
 800 02dc 02F11C02 		add	r2, r2, #28
 801 02e0 1360     		str	r3, [r2]
 118:pathfind.c    **** 
 119:pathfind.c    ****       // Check if the new location is within bounds
 120:pathfind.c    ****       if (nRow < 1 || nRow > MAX_ROWS || nCol < 1 || nCol > MAX_COLS) {
 802              		.loc 1 120 0
 803 02e2 07F59953 		add	r3, r7, #4896
 804 02e6 1B68     		ldr	r3, [r3]
 805 02e8 002B     		cmp	r3, #0
 806 02ea 40F32281 		ble	.L15
 807              		.loc 1 120 0 is_stmt 0 discriminator 1
 808 02ee 07F59953 		add	r3, r7, #4896
 809 02f2 1B68     		ldr	r3, [r3]
 810 02f4 0F2B     		cmp	r3, #15
 811 02f6 00F31C81 		bgt	.L15
 812              		.loc 1 120 0 discriminator 2
 813 02fa 07F59853 		add	r3, r7, #4864
 814 02fe 03F11C03 		add	r3, r3, #28
 815 0302 1B68     		ldr	r3, [r3]
 816 0304 002B     		cmp	r3, #0
 817 0306 40F31481 		ble	.L15
 818              		.loc 1 120 0 discriminator 3
 819 030a 07F59853 		add	r3, r7, #4864
 820 030e 03F11C03 		add	r3, r3, #28
 821 0312 1B68     		ldr	r3, [r3]
 822 0314 132B     		cmp	r3, #19
 823 0316 00F30C81 		bgt	.L15
 121:pathfind.c    ****           // Continue if out of bounds
 122:pathfind.c    ****         } else if (map[nRow][nCol] == 1) {
 824              		.loc 1 122 0 is_stmt 1
 825 031a C649     		ldr	r1, .L31
 826 031c 07F59953 		add	r3, r7, #4896
 827 0320 1A68     		ldr	r2, [r3]
 828 0322 1346     		mov	r3, r2
 829 0324 DB00     		lsls	r3, r3, #3
 830 0326 1344     		add	r3, r3, r2
 831 0328 5B00     		lsls	r3, r3, #1
 832 032a 1344     		add	r3, r3, r2
 833 032c CA18     		adds	r2, r1, r3
 834 032e 07F59853 		add	r3, r7, #4864
 835 0332 03F11C03 		add	r3, r3, #28
 836 0336 1B68     		ldr	r3, [r3]
 837 0338 1344     		add	r3, r3, r2
 838 033a 1B78     		ldrb	r3, [r3]	@ zero_extendqisi2
 839 033c 012B     		cmp	r3, #1
 840 033e 00F0F880 		beq	.L15
 123:pathfind.c    ****           // Continue if neighbour is a wall
ARM GAS  C:\Users\lger522\AppData\Local\Temp\ccu7wruq.s 			page 18


 124:pathfind.c    ****         } else if (visited[nRow][nCol] == 1) {
 841              		.loc 1 124 0
 842 0342 07F51161 		add	r1, r7, #2320
 843 0346 07F59953 		add	r3, r7, #4896
 844 034a 1A68     		ldr	r2, [r3]
 845 034c 1346     		mov	r3, r2
 846 034e DB00     		lsls	r3, r3, #3
 847 0350 1344     		add	r3, r3, r2
 848 0352 5B00     		lsls	r3, r3, #1
 849 0354 1344     		add	r3, r3, r2
 850 0356 CA18     		adds	r2, r1, r3
 851 0358 07F59853 		add	r3, r7, #4864
 852 035c 03F11C03 		add	r3, r3, #28
 853 0360 1B68     		ldr	r3, [r3]
 854 0362 1344     		add	r3, r3, r2
 855 0364 1B78     		ldrb	r3, [r3]	@ zero_extendqisi2
 856 0366 012B     		cmp	r3, #1
 857 0368 00F0E380 		beq	.L15
 125:pathfind.c    ****           // Continue if already visited 
 126:pathfind.c    ****         } else {
 127:pathfind.c    ****           // Check if the new location is not a wall and has not been visited
 128:pathfind.c    **** 
 129:pathfind.c    ****           // Enqueue the new location
 130:pathfind.c    ****           queue[rear][0] = nRow; //TODO may need a plus
 858              		.loc 1 130 0
 859 036c 07F52363 		add	r3, r7, #2608
 860 0370 07F59A52 		add	r2, r7, #4928
 861 0374 02F10402 		add	r2, r2, #4
 862 0378 1268     		ldr	r2, [r2]
 863 037a 07F59951 		add	r1, r7, #4896
 864 037e 0968     		ldr	r1, [r1]
 865 0380 43F83210 		str	r1, [r3, r2, lsl #3]
 131:pathfind.c    ****           queue[rear][1] = nCol;
 866              		.loc 1 131 0
 867 0384 07F52362 		add	r2, r7, #2608
 868 0388 07F59A53 		add	r3, r7, #4928
 869 038c 03F10403 		add	r3, r3, #4
 870 0390 1B68     		ldr	r3, [r3]
 871 0392 DB00     		lsls	r3, r3, #3
 872 0394 1344     		add	r3, r3, r2
 873 0396 07F59852 		add	r2, r7, #4864
 874 039a 02F11C02 		add	r2, r2, #28
 875 039e 1268     		ldr	r2, [r2]
 876 03a0 5A60     		str	r2, [r3, #4]
 132:pathfind.c    ****           rear++;
 877              		.loc 1 132 0
 878 03a2 07F59A53 		add	r3, r7, #4928
 879 03a6 03F10403 		add	r3, r3, #4
 880 03aa 1B68     		ldr	r3, [r3]
 881 03ac 0133     		adds	r3, r3, #1
 882 03ae 07F59A52 		add	r2, r7, #4928
 883 03b2 02F10402 		add	r2, r2, #4
 884 03b6 1360     		str	r3, [r2]
 133:pathfind.c    **** 
 134:pathfind.c    ****           visited[nRow][nCol] = '1';
 885              		.loc 1 134 0
 886 03b8 07F51161 		add	r1, r7, #2320
ARM GAS  C:\Users\lger522\AppData\Local\Temp\ccu7wruq.s 			page 19


 887 03bc 07F59953 		add	r3, r7, #4896
 888 03c0 1A68     		ldr	r2, [r3]
 889 03c2 1346     		mov	r3, r2
 890 03c4 DB00     		lsls	r3, r3, #3
 891 03c6 1344     		add	r3, r3, r2
 892 03c8 5B00     		lsls	r3, r3, #1
 893 03ca 1344     		add	r3, r3, r2
 894 03cc CA18     		adds	r2, r1, r3
 895 03ce 07F59853 		add	r3, r7, #4864
 896 03d2 03F11C03 		add	r3, r3, #28
 897 03d6 1B68     		ldr	r3, [r3]
 898 03d8 1344     		add	r3, r3, r2
 899 03da 3122     		movs	r2, #49
 900 03dc 1A70     		strb	r2, [r3]
 135:pathfind.c    ****           steps[nRow][nCol] = steps[current_row][current_col] + 1;
 901              		.loc 1 135 0
 902 03de 07F29C41 		addw	r1, r7, #1180
 903 03e2 07F59953 		add	r3, r7, #4896
 904 03e6 03F11803 		add	r3, r3, #24
 905 03ea 1A68     		ldr	r2, [r3]
 906 03ec 1346     		mov	r3, r2
 907 03ee DB00     		lsls	r3, r3, #3
 908 03f0 1344     		add	r3, r3, r2
 909 03f2 5B00     		lsls	r3, r3, #1
 910 03f4 1344     		add	r3, r3, r2
 911 03f6 07F59952 		add	r2, r7, #4896
 912 03fa 02F11402 		add	r2, r2, #20
 913 03fe 1268     		ldr	r2, [r2]
 914 0400 1344     		add	r3, r3, r2
 915 0402 51F82330 		ldr	r3, [r1, r3, lsl #2]
 916 0406 581C     		adds	r0, r3, #1
 917 0408 07F29C41 		addw	r1, r7, #1180
 918 040c 07F59953 		add	r3, r7, #4896
 919 0410 1A68     		ldr	r2, [r3]
 920 0412 1346     		mov	r3, r2
 921 0414 DB00     		lsls	r3, r3, #3
 922 0416 1344     		add	r3, r3, r2
 923 0418 5B00     		lsls	r3, r3, #1
 924 041a 1344     		add	r3, r3, r2
 925 041c 07F59852 		add	r2, r7, #4864
 926 0420 02F11C02 		add	r2, r2, #28
 927 0424 1268     		ldr	r2, [r2]
 928 0426 1344     		add	r3, r3, r2
 929 0428 41F82300 		str	r0, [r1, r3, lsl #2]
 136:pathfind.c    **** 
 137:pathfind.c    ****           // Set the parent direction
 138:pathfind.c    ****           if (nRow + 1 == current_row) {
 930              		.loc 1 138 0
 931 042c 07F59953 		add	r3, r7, #4896
 932 0430 1B68     		ldr	r3, [r3]
 933 0432 5A1C     		adds	r2, r3, #1
 934 0434 07F59953 		add	r3, r7, #4896
 935 0438 03F11803 		add	r3, r3, #24
 936 043c 1B68     		ldr	r3, [r3]
 937 043e 9A42     		cmp	r2, r3
 938 0440 14D1     		bne	.L16
 139:pathfind.c    ****             parents[nRow][nCol] = 1;
ARM GAS  C:\Users\lger522\AppData\Local\Temp\ccu7wruq.s 			page 20


 939              		.loc 1 139 0
 940 0442 07F13002 		add	r2, r7, #48
 941 0446 083A     		subs	r2, r2, #8
 942 0448 07F59953 		add	r3, r7, #4896
 943 044c 1968     		ldr	r1, [r3]
 944 044e 0B46     		mov	r3, r1
 945 0450 DB00     		lsls	r3, r3, #3
 946 0452 0B44     		add	r3, r3, r1
 947 0454 5B00     		lsls	r3, r3, #1
 948 0456 0B44     		add	r3, r3, r1
 949 0458 07F59851 		add	r1, r7, #4864
 950 045c 01F11C01 		add	r1, r1, #28
 951 0460 0968     		ldr	r1, [r1]
 952 0462 0B44     		add	r3, r3, r1
 953 0464 0121     		movs	r1, #1
 954 0466 42F82310 		str	r1, [r2, r3, lsl #2]
 955 046a 62E0     		b	.L15
 956              	.L16:
 140:pathfind.c    ****           }
 141:pathfind.c    ****           else if(nCol + 1 == current_col) {
 957              		.loc 1 141 0
 958 046c 07F59853 		add	r3, r7, #4864
 959 0470 03F11C03 		add	r3, r3, #28
 960 0474 1B68     		ldr	r3, [r3]
 961 0476 5A1C     		adds	r2, r3, #1
 962 0478 07F59953 		add	r3, r7, #4896
 963 047c 03F11403 		add	r3, r3, #20
 964 0480 1B68     		ldr	r3, [r3]
 965 0482 9A42     		cmp	r2, r3
 966 0484 14D1     		bne	.L17
 142:pathfind.c    ****             parents[nRow][nCol] = 2;
 967              		.loc 1 142 0
 968 0486 07F13002 		add	r2, r7, #48
 969 048a 083A     		subs	r2, r2, #8
 970 048c 07F59953 		add	r3, r7, #4896
 971 0490 1968     		ldr	r1, [r3]
 972 0492 0B46     		mov	r3, r1
 973 0494 DB00     		lsls	r3, r3, #3
 974 0496 0B44     		add	r3, r3, r1
 975 0498 5B00     		lsls	r3, r3, #1
 976 049a 0B44     		add	r3, r3, r1
 977 049c 07F59851 		add	r1, r7, #4864
 978 04a0 01F11C01 		add	r1, r1, #28
 979 04a4 0968     		ldr	r1, [r1]
 980 04a6 0B44     		add	r3, r3, r1
 981 04a8 0221     		movs	r1, #2
 982 04aa 42F82310 		str	r1, [r2, r3, lsl #2]
 983 04ae 40E0     		b	.L15
 984              	.L17:
 143:pathfind.c    ****           }
 144:pathfind.c    ****           else if(nRow - 1 == current_row) {
 985              		.loc 1 144 0
 986 04b0 07F59953 		add	r3, r7, #4896
 987 04b4 1B68     		ldr	r3, [r3]
 988 04b6 5A1E     		subs	r2, r3, #1
 989 04b8 07F59953 		add	r3, r7, #4896
 990 04bc 03F11803 		add	r3, r3, #24
ARM GAS  C:\Users\lger522\AppData\Local\Temp\ccu7wruq.s 			page 21


 991 04c0 1B68     		ldr	r3, [r3]
 992 04c2 9A42     		cmp	r2, r3
 993 04c4 14D1     		bne	.L18
 145:pathfind.c    ****             parents[nRow][nCol] = 3;
 994              		.loc 1 145 0
 995 04c6 07F13002 		add	r2, r7, #48
 996 04ca 083A     		subs	r2, r2, #8
 997 04cc 07F59953 		add	r3, r7, #4896
 998 04d0 1968     		ldr	r1, [r3]
 999 04d2 0B46     		mov	r3, r1
 1000 04d4 DB00     		lsls	r3, r3, #3
 1001 04d6 0B44     		add	r3, r3, r1
 1002 04d8 5B00     		lsls	r3, r3, #1
 1003 04da 0B44     		add	r3, r3, r1
 1004 04dc 07F59851 		add	r1, r7, #4864
 1005 04e0 01F11C01 		add	r1, r1, #28
 1006 04e4 0968     		ldr	r1, [r1]
 1007 04e6 0B44     		add	r3, r3, r1
 1008 04e8 0321     		movs	r1, #3
 1009 04ea 42F82310 		str	r1, [r2, r3, lsl #2]
 1010 04ee 20E0     		b	.L15
 1011              	.L18:
 146:pathfind.c    ****           }
 147:pathfind.c    ****           else if(nCol - 1 == current_col) {
 1012              		.loc 1 147 0
 1013 04f0 07F59853 		add	r3, r7, #4864
 1014 04f4 03F11C03 		add	r3, r3, #28
 1015 04f8 1B68     		ldr	r3, [r3]
 1016 04fa 5A1E     		subs	r2, r3, #1
 1017 04fc 07F59953 		add	r3, r7, #4896
 1018 0500 03F11403 		add	r3, r3, #20
 1019 0504 1B68     		ldr	r3, [r3]
 1020 0506 9A42     		cmp	r2, r3
 1021 0508 13D1     		bne	.L15
 148:pathfind.c    ****             parents[nRow][nCol] = 4;
 1022              		.loc 1 148 0
 1023 050a 07F13002 		add	r2, r7, #48
 1024 050e 083A     		subs	r2, r2, #8
 1025 0510 07F59953 		add	r3, r7, #4896
 1026 0514 1968     		ldr	r1, [r3]
 1027 0516 0B46     		mov	r3, r1
 1028 0518 DB00     		lsls	r3, r3, #3
 1029 051a 0B44     		add	r3, r3, r1
 1030 051c 5B00     		lsls	r3, r3, #1
 1031 051e 0B44     		add	r3, r3, r1
 1032 0520 07F59851 		add	r1, r7, #4864
 1033 0524 01F11C01 		add	r1, r1, #28
 1034 0528 0968     		ldr	r1, [r1]
 1035 052a 0B44     		add	r3, r3, r1
 1036 052c 0421     		movs	r1, #4
 1037 052e 42F82310 		str	r1, [r2, r3, lsl #2]
 1038              	.L15:
 1039              	.LBE7:
 115:pathfind.c    ****       int nRow = neighbour_array[n][0];
 1040              		.loc 1 115 0 discriminator 2
 1041 0532 07F59953 		add	r3, r7, #4896
 1042 0536 03F11003 		add	r3, r3, #16
ARM GAS  C:\Users\lger522\AppData\Local\Temp\ccu7wruq.s 			page 22


 1043 053a 1B68     		ldr	r3, [r3]
 1044 053c 0133     		adds	r3, r3, #1
 1045 053e 07F59952 		add	r2, r7, #4896
 1046 0542 02F11002 		add	r2, r2, #16
 1047 0546 1360     		str	r3, [r2]
 1048              	.L14:
 115:pathfind.c    ****       int nRow = neighbour_array[n][0];
 1049              		.loc 1 115 0 is_stmt 0 discriminator 1
 1050 0548 07F59953 		add	r3, r7, #4896
 1051 054c 03F11003 		add	r3, r3, #16
 1052 0550 1B68     		ldr	r3, [r3]
 1053 0552 032B     		cmp	r3, #3
 1054 0554 7FF7A8AE 		ble	.L19
 1055              	.LBE6:
 149:pathfind.c    ****           }
 150:pathfind.c    **** 
 151:pathfind.c    ****         }
 152:pathfind.c    ****       }
 153:pathfind.c    **** 
 154:pathfind.c    ****       // Check if the target location is reached
 155:pathfind.c    ****       if (current_row == targetlocation[0] && current_col == targetlocation[1]) {
 1056              		.loc 1 155 0 is_stmt 1
 1057 0558 07F11003 		add	r3, r7, #16
 1058 055c 103B     		subs	r3, r3, #16
 1059 055e 1B68     		ldr	r3, [r3]
 1060 0560 1B78     		ldrb	r3, [r3]	@ zero_extendqisi2
 1061 0562 1A46     		mov	r2, r3
 1062 0564 07F59953 		add	r3, r7, #4896
 1063 0568 03F11803 		add	r3, r3, #24
 1064 056c 1B68     		ldr	r3, [r3]
 1065 056e 9A42     		cmp	r2, r3
 1066 0570 14D1     		bne	.L13
 1067              		.loc 1 155 0 is_stmt 0 discriminator 1
 1068 0572 07F11003 		add	r3, r7, #16
 1069 0576 103B     		subs	r3, r3, #16
 1070 0578 1B68     		ldr	r3, [r3]
 1071 057a 0133     		adds	r3, r3, #1
 1072 057c 1B78     		ldrb	r3, [r3]	@ zero_extendqisi2
 1073 057e 1A46     		mov	r2, r3
 1074 0580 07F59953 		add	r3, r7, #4896
 1075 0584 03F11403 		add	r3, r3, #20
 1076 0588 1B68     		ldr	r3, [r3]
 1077 058a 9A42     		cmp	r2, r3
 1078 058c 06D1     		bne	.L13
 156:pathfind.c    ****         finished = 1;
 1079              		.loc 1 156 0 is_stmt 1
 1080 058e 0123     		movs	r3, #1
 1081 0590 07F59952 		add	r2, r7, #4896
 1082 0594 02F10402 		add	r2, r2, #4
 1083 0598 1360     		str	r3, [r2]
 1084 059a 13E0     		b	.L21
 1085              	.L13:
 1086              	.LBE5:
  88:pathfind.c    ****     // Process the current location
 1087              		.loc 1 88 0
 1088 059c 07F59A53 		add	r3, r7, #4928
 1089 05a0 03F10803 		add	r3, r3, #8
ARM GAS  C:\Users\lger522\AppData\Local\Temp\ccu7wruq.s 			page 23


 1090 05a4 1A68     		ldr	r2, [r3]
 1091 05a6 07F59A53 		add	r3, r7, #4928
 1092 05aa 03F10403 		add	r3, r3, #4
 1093 05ae 1B68     		ldr	r3, [r3]
 1094 05b0 9A42     		cmp	r2, r3
 1095 05b2 07DA     		bge	.L21
  88:pathfind.c    ****     // Process the current location
 1096              		.loc 1 88 0 is_stmt 0 discriminator 1
 1097 05b4 07F59953 		add	r3, r7, #4896
 1098 05b8 03F10403 		add	r3, r3, #4
 1099 05bc 1B68     		ldr	r3, [r3]
 1100 05be 002B     		cmp	r3, #0
 1101 05c0 3FF4D3AD 		beq	.L22
 1102              	.L21:
 157:pathfind.c    ****         break;
 158:pathfind.c    ****       }
 159:pathfind.c    ****     }
 160:pathfind.c    **** 
 161:pathfind.c    ****   // Backtrack to find the path and highlight steps
 162:pathfind.c    ****   int fpos1 = current_row;
 1103              		.loc 1 162 0 is_stmt 1
 1104 05c4 07F59953 		add	r3, r7, #4896
 1105 05c8 03F11803 		add	r3, r3, #24
 1106 05cc 1B68     		ldr	r3, [r3]
 1107 05ce 07F59952 		add	r2, r7, #4896
 1108 05d2 02F10C02 		add	r2, r2, #12
 1109 05d6 1360     		str	r3, [r2]
 163:pathfind.c    ****   int fpos2 = current_col;
 1110              		.loc 1 163 0
 1111 05d8 07F59953 		add	r3, r7, #4896
 1112 05dc 03F11403 		add	r3, r3, #20
 1113 05e0 1B68     		ldr	r3, [r3]
 1114 05e2 07F59952 		add	r2, r7, #4896
 1115 05e6 02F10802 		add	r2, r2, #8
 1116 05ea 1360     		str	r3, [r2]
 164:pathfind.c    ****     
 165:pathfind.c    **** // Highlight the current location
 166:pathfind.c    ****   squares[squaresCounter][0] = current_row;
 1117              		.loc 1 166 0
 1118 05ec 124B     		ldr	r3, .L31+4
 1119 05ee 1B68     		ldr	r3, [r3]
 1120 05f0 5A00     		lsls	r2, r3, #1
 1121 05f2 07F11003 		add	r3, r7, #16
 1122 05f6 0C3B     		subs	r3, r3, #12
 1123 05f8 1B68     		ldr	r3, [r3]
 1124 05fa 1344     		add	r3, r3, r2
 1125 05fc 07F59952 		add	r2, r7, #4896
 1126 0600 02F11802 		add	r2, r2, #24
 1127 0604 1268     		ldr	r2, [r2]
 1128 0606 D2B2     		uxtb	r2, r2
 1129 0608 1A70     		strb	r2, [r3]
 167:pathfind.c    ****   squares[squaresCounter][1] = current_col;
 1130              		.loc 1 167 0
 1131 060a 0B4B     		ldr	r3, .L31+4
 1132 060c 1B68     		ldr	r3, [r3]
 1133 060e 5A00     		lsls	r2, r3, #1
 1134 0610 07F11003 		add	r3, r7, #16
ARM GAS  C:\Users\lger522\AppData\Local\Temp\ccu7wruq.s 			page 24


 1135 0614 0C3B     		subs	r3, r3, #12
 1136 0616 1B68     		ldr	r3, [r3]
 1137 0618 1344     		add	r3, r3, r2
 1138 061a 07F59952 		add	r2, r7, #4896
 1139 061e 02F11402 		add	r2, r2, #20
 1140 0622 1268     		ldr	r2, [r2]
 1141 0624 D2B2     		uxtb	r2, r2
 1142 0626 5A70     		strb	r2, [r3, #1]
 168:pathfind.c    ****   squaresCounter++;
 1143              		.loc 1 168 0
 1144 0628 034B     		ldr	r3, .L31+4
 1145 062a 1B68     		ldr	r3, [r3]
 1146 062c 0133     		adds	r3, r3, #1
 1147 062e 024A     		ldr	r2, .L31+4
 1148 0630 1360     		str	r3, [r2]
 169:pathfind.c    **** 
 170:pathfind.c    ****   while (startPos[0] != fpos1 || startPos[1] != fpos2) {
 1149              		.loc 1 170 0
 1150 0632 8BE0     		b	.L23
 1151              	.L32:
 1152              		.align	2
 1153              	.L31:
 1154 0634 00000000 		.word	map
 1155 0638 00000000 		.word	squaresCounter
 1156              	.L28:
 1157              	.LBB8:
 171:pathfind.c    ****     int parent_dir = parents[fpos1][fpos2];
 1158              		.loc 1 171 0
 1159 063c 07F13002 		add	r2, r7, #48
 1160 0640 083A     		subs	r2, r2, #8
 1161 0642 07F59953 		add	r3, r7, #4896
 1162 0646 03F10C03 		add	r3, r3, #12
 1163 064a 1968     		ldr	r1, [r3]
 1164 064c 0B46     		mov	r3, r1
 1165 064e DB00     		lsls	r3, r3, #3
 1166 0650 0B44     		add	r3, r3, r1
 1167 0652 5B00     		lsls	r3, r3, #1
 1168 0654 0B44     		add	r3, r3, r1
 1169 0656 07F59951 		add	r1, r7, #4896
 1170 065a 01F10801 		add	r1, r1, #8
 1171 065e 0968     		ldr	r1, [r1]
 1172 0660 0B44     		add	r3, r3, r1
 1173 0662 52F82330 		ldr	r3, [r2, r3, lsl #2]
 1174 0666 07F59852 		add	r2, r7, #4864
 1175 066a 02F11802 		add	r2, r2, #24
 1176 066e 1360     		str	r3, [r2]
 172:pathfind.c    **** 
 173:pathfind.c    ****     if (parent_dir == 1) {
 1177              		.loc 1 173 0
 1178 0670 07F59853 		add	r3, r7, #4864
 1179 0674 03F11803 		add	r3, r3, #24
 1180 0678 1B68     		ldr	r3, [r3]
 1181 067a 012B     		cmp	r3, #1
 1182 067c 0BD1     		bne	.L24
 174:pathfind.c    ****       fpos1++;
 1183              		.loc 1 174 0
 1184 067e 07F59953 		add	r3, r7, #4896
ARM GAS  C:\Users\lger522\AppData\Local\Temp\ccu7wruq.s 			page 25


 1185 0682 03F10C03 		add	r3, r3, #12
 1186 0686 1B68     		ldr	r3, [r3]
 1187 0688 0133     		adds	r3, r3, #1
 1188 068a 07F59952 		add	r2, r7, #4896
 1189 068e 02F10C02 		add	r2, r2, #12
 1190 0692 1360     		str	r3, [r2]
 1191 0694 37E0     		b	.L25
 1192              	.L24:
 175:pathfind.c    ****     } else if (parent_dir == 2) {
 1193              		.loc 1 175 0
 1194 0696 07F59853 		add	r3, r7, #4864
 1195 069a 03F11803 		add	r3, r3, #24
 1196 069e 1B68     		ldr	r3, [r3]
 1197 06a0 022B     		cmp	r3, #2
 1198 06a2 0BD1     		bne	.L26
 176:pathfind.c    ****       fpos2++;
 1199              		.loc 1 176 0
 1200 06a4 07F59953 		add	r3, r7, #4896
 1201 06a8 03F10803 		add	r3, r3, #8
 1202 06ac 1B68     		ldr	r3, [r3]
 1203 06ae 0133     		adds	r3, r3, #1
 1204 06b0 07F59952 		add	r2, r7, #4896
 1205 06b4 02F10802 		add	r2, r2, #8
 1206 06b8 1360     		str	r3, [r2]
 1207 06ba 24E0     		b	.L25
 1208              	.L26:
 177:pathfind.c    ****     } else if (parent_dir == 3) {
 1209              		.loc 1 177 0
 1210 06bc 07F59853 		add	r3, r7, #4864
 1211 06c0 03F11803 		add	r3, r3, #24
 1212 06c4 1B68     		ldr	r3, [r3]
 1213 06c6 032B     		cmp	r3, #3
 1214 06c8 0BD1     		bne	.L27
 178:pathfind.c    ****       fpos1--;
 1215              		.loc 1 178 0
 1216 06ca 07F59953 		add	r3, r7, #4896
 1217 06ce 03F10C03 		add	r3, r3, #12
 1218 06d2 1B68     		ldr	r3, [r3]
 1219 06d4 013B     		subs	r3, r3, #1
 1220 06d6 07F59952 		add	r2, r7, #4896
 1221 06da 02F10C02 		add	r2, r2, #12
 1222 06de 1360     		str	r3, [r2]
 1223 06e0 11E0     		b	.L25
 1224              	.L27:
 179:pathfind.c    ****     } else if (parent_dir == 4) {
 1225              		.loc 1 179 0
 1226 06e2 07F59853 		add	r3, r7, #4864
 1227 06e6 03F11803 		add	r3, r3, #24
 1228 06ea 1B68     		ldr	r3, [r3]
 1229 06ec 042B     		cmp	r3, #4
 1230 06ee 0AD1     		bne	.L25
 180:pathfind.c    ****       fpos2--;
 1231              		.loc 1 180 0
 1232 06f0 07F59953 		add	r3, r7, #4896
 1233 06f4 03F10803 		add	r3, r3, #8
 1234 06f8 1B68     		ldr	r3, [r3]
 1235 06fa 013B     		subs	r3, r3, #1
ARM GAS  C:\Users\lger522\AppData\Local\Temp\ccu7wruq.s 			page 26


 1236 06fc 07F59952 		add	r2, r7, #4896
 1237 0700 02F10802 		add	r2, r2, #8
 1238 0704 1360     		str	r3, [r2]
 1239              	.L25:
 181:pathfind.c    ****     }
 182:pathfind.c    **** 
 183:pathfind.c    ****     // Highlight the step
 184:pathfind.c    ****     //highlightstep(fpos1, fpos2);
 185:pathfind.c    ****     squares[squaresCounter][0] = fpos1;
 1240              		.loc 1 185 0
 1241 0706 1E4B     		ldr	r3, .L33
 1242 0708 1B68     		ldr	r3, [r3]
 1243 070a 5A00     		lsls	r2, r3, #1
 1244 070c 07F11003 		add	r3, r7, #16
 1245 0710 0C3B     		subs	r3, r3, #12
 1246 0712 1B68     		ldr	r3, [r3]
 1247 0714 1344     		add	r3, r3, r2
 1248 0716 07F59952 		add	r2, r7, #4896
 1249 071a 02F10C02 		add	r2, r2, #12
 1250 071e 1268     		ldr	r2, [r2]
 1251 0720 D2B2     		uxtb	r2, r2
 1252 0722 1A70     		strb	r2, [r3]
 186:pathfind.c    ****     squares[squaresCounter][1] = fpos2;
 1253              		.loc 1 186 0
 1254 0724 164B     		ldr	r3, .L33
 1255 0726 1B68     		ldr	r3, [r3]
 1256 0728 5A00     		lsls	r2, r3, #1
 1257 072a 07F11003 		add	r3, r7, #16
 1258 072e 0C3B     		subs	r3, r3, #12
 1259 0730 1B68     		ldr	r3, [r3]
 1260 0732 1344     		add	r3, r3, r2
 1261 0734 07F59952 		add	r2, r7, #4896
 1262 0738 02F10802 		add	r2, r2, #8
 1263 073c 1268     		ldr	r2, [r2]
 1264 073e D2B2     		uxtb	r2, r2
 1265 0740 5A70     		strb	r2, [r3, #1]
 187:pathfind.c    ****     squaresCounter++;
 1266              		.loc 1 187 0
 1267 0742 0F4B     		ldr	r3, .L33
 1268 0744 1B68     		ldr	r3, [r3]
 1269 0746 0133     		adds	r3, r3, #1
 1270 0748 0D4A     		ldr	r2, .L33
 1271 074a 1360     		str	r3, [r2]
 1272              	.L23:
 1273              	.LBE8:
 170:pathfind.c    ****     int parent_dir = parents[fpos1][fpos2];
 1274              		.loc 1 170 0
 1275 074c 0D4B     		ldr	r3, .L33+4
 1276 074e 1A68     		ldr	r2, [r3]
 1277 0750 07F59953 		add	r3, r7, #4896
 1278 0754 03F10C03 		add	r3, r3, #12
 1279 0758 1B68     		ldr	r3, [r3]
 1280 075a 9A42     		cmp	r2, r3
 1281 075c 7FF46EAF 		bne	.L28
 170:pathfind.c    ****     int parent_dir = parents[fpos1][fpos2];
 1282              		.loc 1 170 0 is_stmt 0 discriminator 1
 1283 0760 084B     		ldr	r3, .L33+4
ARM GAS  C:\Users\lger522\AppData\Local\Temp\ccu7wruq.s 			page 27


 1284 0762 5A68     		ldr	r2, [r3, #4]
 1285 0764 07F59953 		add	r3, r7, #4896
 1286 0768 03F10803 		add	r3, r3, #8
 1287 076c 1B68     		ldr	r3, [r3]
 1288 076e 9A42     		cmp	r2, r3
 1289 0770 7FF464AF 		bne	.L28
 188:pathfind.c    ****   }
 189:pathfind.c    ****   //highlightstep(current_row, current_col);
 190:pathfind.c    **** 
 191:pathfind.c    **** }
 1290              		.loc 1 191 0 is_stmt 1
 1291 0774 00BF     		nop
 1292 0776 07F59A57 		add	r7, r7, #4928
 1293 077a 1037     		adds	r7, r7, #16
 1294              		.cfi_def_cfa_offset 8
 1295 077c BD46     		mov	sp, r7
 1296              		.cfi_def_cfa_register 13
 1297              		@ sp needed
 1298 077e 80BD     		pop	{r7, pc}
 1299              	.L34:
 1300              		.align	2
 1301              	.L33:
 1302 0780 00000000 		.word	squaresCounter
 1303 0784 00000000 		.word	startPos
 1304              		.cfi_endproc
 1305              	.LFE65:
 1306              		.size	bfs, .-bfs
 1307              		.section	.text.generateInstructionList,"ax",%progbits
 1308              		.align	2
 1309              		.global	generateInstructionList
 1310              		.thumb
 1311              		.thumb_func
 1312              		.type	generateInstructionList, %function
 1313              	generateInstructionList:
 1314              	.LFB66:
 192:pathfind.c    **** 
 193:pathfind.c    **** void generateInstructionList(unsigned char * instruction, unsigned char * distance, unsigned char( 
 1315              		.loc 1 193 0
 1316              		.cfi_startproc
 1317              		@ args = 0, pretend = 0, frame = 1048
 1318              		@ frame_needed = 1, uses_anonymous_args = 0
 1319              		@ link register save eliminated.
 1320 0000 80B4     		push	{r7}
 1321              		.cfi_def_cfa_offset 4
 1322              		.cfi_offset 7, -4
 1323 0002 ADF21C4D 		subw	sp, sp, #1052
 1324              		.cfi_def_cfa_offset 1056
 1325 0006 00AF     		add	r7, sp, #0
 1326              		.cfi_def_cfa_register 7
 1327 0008 07F10C03 		add	r3, r7, #12
 1328 000c 1860     		str	r0, [r3]
 1329 000e 07F10803 		add	r3, r7, #8
 1330 0012 1960     		str	r1, [r3]
 1331 0014 3B1D     		adds	r3, r7, #4
 1332 0016 1A60     		str	r2, [r3]
 194:pathfind.c    ****     unsigned char reversedSquares[500][2];  // New array to store reversed and filtered entries
 195:pathfind.c    ****     int count = 0;  // Count of non-matching entries
ARM GAS  C:\Users\lger522\AppData\Local\Temp\ccu7wruq.s 			page 28


 1333              		.loc 1 195 0
 1334 0018 0023     		movs	r3, #0
 1335 001a C7F81434 		str	r3, [r7, #1044]
 1336              	.LBB9:
 196:pathfind.c    ****     
 197:pathfind.c    ****     // Reverse and filter the entries
 198:pathfind.c    ****     for (int i = 499; i >= 0; i--) {
 1337              		.loc 1 198 0
 1338 001e 40F2F313 		movw	r3, #499
 1339 0022 C7F81034 		str	r3, [r7, #1040]
 1340 0026 2DE0     		b	.L36
 1341              	.L37:
 199:pathfind.c    ****         distance[i] = 70; //TODO remove
 1342              		.loc 1 199 0 discriminator 3
 1343 0028 D7F81034 		ldr	r3, [r7, #1040]
 1344 002c 07F10802 		add	r2, r7, #8
 1345 0030 1268     		ldr	r2, [r2]
 1346 0032 1344     		add	r3, r3, r2
 1347 0034 4622     		movs	r2, #70
 1348 0036 1A70     		strb	r2, [r3]
 200:pathfind.c    ****         //if (squares[i][0] != 111 || squares[i][1] != 111) {
 201:pathfind.c    ****             // Copy non-matching entry to the new array
 202:pathfind.c    ****             reversedSquares[count][0] = squares[i][0];
 1349              		.loc 1 202 0 discriminator 3
 1350 0038 D7F81034 		ldr	r3, [r7, #1040]
 1351 003c 5B00     		lsls	r3, r3, #1
 1352 003e 3A1D     		adds	r2, r7, #4
 1353 0040 1268     		ldr	r2, [r2]
 1354 0042 1344     		add	r3, r3, r2
 1355 0044 1978     		ldrb	r1, [r3]	@ zero_extendqisi2
 1356 0046 07F11403 		add	r3, r7, #20
 1357 004a D7F81424 		ldr	r2, [r7, #1044]
 1358 004e 03F81210 		strb	r1, [r3, r2, lsl #1]
 203:pathfind.c    ****             reversedSquares[count][1] = squares[i][1];
 1359              		.loc 1 203 0 discriminator 3
 1360 0052 D7F81034 		ldr	r3, [r7, #1040]
 1361 0056 5B00     		lsls	r3, r3, #1
 1362 0058 3A1D     		adds	r2, r7, #4
 1363 005a 1268     		ldr	r2, [r2]
 1364 005c 1344     		add	r3, r3, r2
 1365 005e 5978     		ldrb	r1, [r3, #1]	@ zero_extendqisi2
 1366 0060 07F11402 		add	r2, r7, #20
 1367 0064 D7F81434 		ldr	r3, [r7, #1044]
 1368 0068 5B00     		lsls	r3, r3, #1
 1369 006a 1344     		add	r3, r3, r2
 1370 006c 0A46     		mov	r2, r1
 1371 006e 5A70     		strb	r2, [r3, #1]
 204:pathfind.c    ****             count++;
 1372              		.loc 1 204 0 discriminator 3
 1373 0070 D7F81434 		ldr	r3, [r7, #1044]
 1374 0074 0133     		adds	r3, r3, #1
 1375 0076 C7F81434 		str	r3, [r7, #1044]
 198:pathfind.c    ****         distance[i] = 70; //TODO remove
 1376              		.loc 1 198 0 discriminator 3
 1377 007a D7F81034 		ldr	r3, [r7, #1040]
 1378 007e 013B     		subs	r3, r3, #1
 1379 0080 C7F81034 		str	r3, [r7, #1040]
ARM GAS  C:\Users\lger522\AppData\Local\Temp\ccu7wruq.s 			page 29


 1380              	.L36:
 198:pathfind.c    ****         distance[i] = 70; //TODO remove
 1381              		.loc 1 198 0 is_stmt 0 discriminator 1
 1382 0084 D7F81034 		ldr	r3, [r7, #1040]
 1383 0088 002B     		cmp	r3, #0
 1384 008a CDDA     		bge	.L37
 1385              	.LBE9:
 1386              	.LBB10:
 205:pathfind.c    ****         //}
 206:pathfind.c    ****     }
 207:pathfind.c    ****     
 208:pathfind.c    ****     for (int i = 0; i < 500; i++) {
 1387              		.loc 1 208 0 is_stmt 1
 1388 008c 0023     		movs	r3, #0
 1389 008e C7F80C34 		str	r3, [r7, #1036]
 1390 0092 1FE0     		b	.L38
 1391              	.L39:
 209:pathfind.c    ****         squares[i][0] = reversedSquares[i][0];
 1392              		.loc 1 209 0 discriminator 3
 1393 0094 D7F80C34 		ldr	r3, [r7, #1036]
 1394 0098 5B00     		lsls	r3, r3, #1
 1395 009a 3A1D     		adds	r2, r7, #4
 1396 009c 1268     		ldr	r2, [r2]
 1397 009e 1344     		add	r3, r3, r2
 1398 00a0 07F11402 		add	r2, r7, #20
 1399 00a4 D7F80C14 		ldr	r1, [r7, #1036]
 1400 00a8 12F81120 		ldrb	r2, [r2, r1, lsl #1]	@ zero_extendqisi2
 1401 00ac 1A70     		strb	r2, [r3]
 210:pathfind.c    ****         squares[i][1] = reversedSquares[i][1];
 1402              		.loc 1 210 0 discriminator 3
 1403 00ae D7F80C34 		ldr	r3, [r7, #1036]
 1404 00b2 5B00     		lsls	r3, r3, #1
 1405 00b4 3A1D     		adds	r2, r7, #4
 1406 00b6 1268     		ldr	r2, [r2]
 1407 00b8 1A44     		add	r2, r2, r3
 1408 00ba 07F11401 		add	r1, r7, #20
 1409 00be D7F80C34 		ldr	r3, [r7, #1036]
 1410 00c2 5B00     		lsls	r3, r3, #1
 1411 00c4 0B44     		add	r3, r3, r1
 1412 00c6 5B78     		ldrb	r3, [r3, #1]	@ zero_extendqisi2
 1413 00c8 5370     		strb	r3, [r2, #1]
 208:pathfind.c    ****         squares[i][0] = reversedSquares[i][0];
 1414              		.loc 1 208 0 discriminator 3
 1415 00ca D7F80C34 		ldr	r3, [r7, #1036]
 1416 00ce 0133     		adds	r3, r3, #1
 1417 00d0 C7F80C34 		str	r3, [r7, #1036]
 1418              	.L38:
 208:pathfind.c    ****         squares[i][0] = reversedSquares[i][0];
 1419              		.loc 1 208 0 is_stmt 0 discriminator 1
 1420 00d4 D7F80C34 		ldr	r3, [r7, #1036]
 1421 00d8 B3F5FA7F 		cmp	r3, #500
 1422 00dc DADB     		blt	.L39
 1423              	.LBE10:
 1424              	.LBB11:
 211:pathfind.c    ****     }
 212:pathfind.c    ****     
 213:pathfind.c    ****     for (int i = 0; i < 499; i++) {
ARM GAS  C:\Users\lger522\AppData\Local\Temp\ccu7wruq.s 			page 30


 1425              		.loc 1 213 0 is_stmt 1
 1426 00de 0023     		movs	r3, #0
 1427 00e0 C7F80834 		str	r3, [r7, #1032]
 1428 00e4 71E2     		b	.L40
 1429              	.L89:
 1430              	.LBB12:
 214:pathfind.c    ****         
 215:pathfind.c    ****         unsigned char startRow = squares[i][0];
 1431              		.loc 1 215 0
 1432 00e6 D7F80834 		ldr	r3, [r7, #1032]
 1433 00ea 5B00     		lsls	r3, r3, #1
 1434 00ec 3A1D     		adds	r2, r7, #4
 1435 00ee 1268     		ldr	r2, [r2]
 1436 00f0 1344     		add	r3, r3, r2
 1437 00f2 1B78     		ldrb	r3, [r3]
 1438 00f4 87F8FF33 		strb	r3, [r7, #1023]
 216:pathfind.c    ****         unsigned char startCol = squares[i][1];
 1439              		.loc 1 216 0
 1440 00f8 D7F80834 		ldr	r3, [r7, #1032]
 1441 00fc 5B00     		lsls	r3, r3, #1
 1442 00fe 3A1D     		adds	r2, r7, #4
 1443 0100 1268     		ldr	r2, [r2]
 1444 0102 1344     		add	r3, r3, r2
 1445 0104 5B78     		ldrb	r3, [r3, #1]
 1446 0106 87F8FE33 		strb	r3, [r7, #1022]
 217:pathfind.c    ****         unsigned char nextMoveRow = squares[i+1][0];
 1447              		.loc 1 217 0
 1448 010a D7F80834 		ldr	r3, [r7, #1032]
 1449 010e 0133     		adds	r3, r3, #1
 1450 0110 5B00     		lsls	r3, r3, #1
 1451 0112 3A1D     		adds	r2, r7, #4
 1452 0114 1268     		ldr	r2, [r2]
 1453 0116 1344     		add	r3, r3, r2
 1454 0118 1B78     		ldrb	r3, [r3]
 1455 011a 87F80734 		strb	r3, [r7, #1031]
 218:pathfind.c    ****         unsigned char nextMoveCol = squares[i+1][1];
 1456              		.loc 1 218 0
 1457 011e D7F80834 		ldr	r3, [r7, #1032]
 1458 0122 0133     		adds	r3, r3, #1
 1459 0124 5B00     		lsls	r3, r3, #1
 1460 0126 3A1D     		adds	r2, r7, #4
 1461 0128 1268     		ldr	r2, [r2]
 1462 012a 1344     		add	r3, r3, r2
 1463 012c 5B78     		ldrb	r3, [r3, #1]
 1464 012e 87F80634 		strb	r3, [r7, #1030]
 219:pathfind.c    ****         
 220:pathfind.c    ****         unsigned char travelDir = 55;
 1465              		.loc 1 220 0
 1466 0132 3723     		movs	r3, #55
 1467 0134 87F80534 		strb	r3, [r7, #1029]
 221:pathfind.c    ****         
 222:pathfind.c    ****         // Work out direction of travel
 223:pathfind.c    ****         if ((startRow == nextMoveRow && startCol == nextMoveCol) || (nextMoveRow == 55 && nextMoveC
 1468              		.loc 1 223 0
 1469 0138 97F8FF23 		ldrb	r2, [r7, #1023]	@ zero_extendqisi2
 1470 013c 97F80734 		ldrb	r3, [r7, #1031]	@ zero_extendqisi2
 1471 0140 9A42     		cmp	r2, r3
ARM GAS  C:\Users\lger522\AppData\Local\Temp\ccu7wruq.s 			page 31


 1472 0142 05D1     		bne	.L41
 1473              		.loc 1 223 0 is_stmt 0 discriminator 1
 1474 0144 97F8FE23 		ldrb	r2, [r7, #1022]	@ zero_extendqisi2
 1475 0148 97F80634 		ldrb	r3, [r7, #1030]	@ zero_extendqisi2
 1476 014c 9A42     		cmp	r2, r3
 1477 014e 07D0     		beq	.L42
 1478              	.L41:
 1479              		.loc 1 223 0 discriminator 3
 1480 0150 97F80734 		ldrb	r3, [r7, #1031]	@ zero_extendqisi2
 1481 0154 372B     		cmp	r3, #55
 1482 0156 07D1     		bne	.L43
 1483              		.loc 1 223 0 discriminator 4
 1484 0158 97F80634 		ldrb	r3, [r7, #1030]	@ zero_extendqisi2
 1485 015c 372B     		cmp	r3, #55
 1486 015e 03D1     		bne	.L43
 1487              	.L42:
 224:pathfind.c    ****             travelDir = 0; // stop
 1488              		.loc 1 224 0 is_stmt 1
 1489 0160 0023     		movs	r3, #0
 1490 0162 87F80534 		strb	r3, [r7, #1029]
 1491 0166 2AE0     		b	.L44
 1492              	.L43:
 225:pathfind.c    ****         } else if (startRow - 1 == nextMoveRow) {
 1493              		.loc 1 225 0
 1494 0168 97F8FF33 		ldrb	r3, [r7, #1023]	@ zero_extendqisi2
 1495 016c 5A1E     		subs	r2, r3, #1
 1496 016e 97F80734 		ldrb	r3, [r7, #1031]	@ zero_extendqisi2
 1497 0172 9A42     		cmp	r2, r3
 1498 0174 03D1     		bne	.L45
 226:pathfind.c    ****             travelDir = 1; // global up
 1499              		.loc 1 226 0
 1500 0176 0123     		movs	r3, #1
 1501 0178 87F80534 		strb	r3, [r7, #1029]
 1502 017c 1FE0     		b	.L44
 1503              	.L45:
 227:pathfind.c    ****         } else if (startRow + 1 == nextMoveRow) {
 1504              		.loc 1 227 0
 1505 017e 97F8FF33 		ldrb	r3, [r7, #1023]	@ zero_extendqisi2
 1506 0182 5A1C     		adds	r2, r3, #1
 1507 0184 97F80734 		ldrb	r3, [r7, #1031]	@ zero_extendqisi2
 1508 0188 9A42     		cmp	r2, r3
 1509 018a 03D1     		bne	.L46
 228:pathfind.c    ****             travelDir = 2; // global down
 1510              		.loc 1 228 0
 1511 018c 0223     		movs	r3, #2
 1512 018e 87F80534 		strb	r3, [r7, #1029]
 1513 0192 14E0     		b	.L44
 1514              	.L46:
 229:pathfind.c    ****         } else if (startCol + 1 == nextMoveCol) {
 1515              		.loc 1 229 0
 1516 0194 97F8FE33 		ldrb	r3, [r7, #1022]	@ zero_extendqisi2
 1517 0198 5A1C     		adds	r2, r3, #1
 1518 019a 97F80634 		ldrb	r3, [r7, #1030]	@ zero_extendqisi2
 1519 019e 9A42     		cmp	r2, r3
 1520 01a0 03D1     		bne	.L47
 230:pathfind.c    ****             travelDir = 3; // global right
 1521              		.loc 1 230 0
ARM GAS  C:\Users\lger522\AppData\Local\Temp\ccu7wruq.s 			page 32


 1522 01a2 0323     		movs	r3, #3
 1523 01a4 87F80534 		strb	r3, [r7, #1029]
 1524 01a8 09E0     		b	.L44
 1525              	.L47:
 231:pathfind.c    ****         } else if (startCol - 1 == nextMoveCol) {
 1526              		.loc 1 231 0
 1527 01aa 97F8FE33 		ldrb	r3, [r7, #1022]	@ zero_extendqisi2
 1528 01ae 5A1E     		subs	r2, r3, #1
 1529 01b0 97F80634 		ldrb	r3, [r7, #1030]	@ zero_extendqisi2
 1530 01b4 9A42     		cmp	r2, r3
 1531 01b6 02D1     		bne	.L44
 232:pathfind.c    ****             travelDir = 4; // global left
 1532              		.loc 1 232 0
 1533 01b8 0423     		movs	r3, #4
 1534 01ba 87F80534 		strb	r3, [r7, #1029]
 1535              	.L44:
 233:pathfind.c    ****         }
 234:pathfind.c    ****         
 235:pathfind.c    ****         if (i == 0) {
 1536              		.loc 1 235 0
 1537 01be D7F80834 		ldr	r3, [r7, #1032]
 1538 01c2 002B     		cmp	r3, #0
 1539 01c4 03D1     		bne	.L48
 236:pathfind.c    ****             robotDirection = travelDir;
 1540              		.loc 1 236 0
 1541 01c6 97F80534 		ldrb	r3, [r7, #1029]	@ zero_extendqisi2
 1542 01ca BD4A     		ldr	r2, .L91
 1543 01cc 1360     		str	r3, [r2]
 1544              	.L48:
 237:pathfind.c    ****         }
 238:pathfind.c    ****         
 239:pathfind.c    ****         // Work out at what point we need a new instruction. 
 240:pathfind.c    ****         // Either the square is at an intersection or a change in target direction 
 241:pathfind.c    ****         int endOfInstruction = 0;
 1545              		.loc 1 241 0
 1546 01ce 0023     		movs	r3, #0
 1547 01d0 C7F80034 		str	r3, [r7, #1024]
 242:pathfind.c    ****         while (endOfInstruction == 0) {
 1548              		.loc 1 242 0
 1549 01d4 C6E0     		b	.L49
 1550              	.L65:
 243:pathfind.c    ****             if (startRow == 55) {
 1551              		.loc 1 243 0
 1552 01d6 97F8FF33 		ldrb	r3, [r7, #1023]	@ zero_extendqisi2
 1553 01da 372B     		cmp	r3, #55
 1554 01dc 05D1     		bne	.L50
 244:pathfind.c    ****                 i++;
 1555              		.loc 1 244 0
 1556 01de D7F80834 		ldr	r3, [r7, #1032]
 1557 01e2 0133     		adds	r3, r3, #1
 1558 01e4 C7F80834 		str	r3, [r7, #1032]
 245:pathfind.c    ****                 break;
 1559              		.loc 1 245 0
 1560 01e8 C1E0     		b	.L51
 1561              	.L50:
 246:pathfind.c    ****             }
 247:pathfind.c    ****             if (travelDir == 3 || travelDir == 4) {
ARM GAS  C:\Users\lger522\AppData\Local\Temp\ccu7wruq.s 			page 33


 1562              		.loc 1 247 0
 1563 01ea 97F80534 		ldrb	r3, [r7, #1029]	@ zero_extendqisi2
 1564 01ee 032B     		cmp	r3, #3
 1565 01f0 03D0     		beq	.L52
 1566              		.loc 1 247 0 is_stmt 0 discriminator 1
 1567 01f2 97F80534 		ldrb	r3, [r7, #1029]	@ zero_extendqisi2
 1568 01f6 042B     		cmp	r3, #4
 1569 01f8 23D1     		bne	.L53
 1570              	.L52:
 248:pathfind.c    ****                 if (map[nextMoveRow + 1][nextMoveCol] == 0 || map[nextMoveRow - 1][nextMoveCol] == 
 1571              		.loc 1 248 0 is_stmt 1
 1572 01fa 97F80734 		ldrb	r3, [r7, #1031]	@ zero_extendqisi2
 1573 01fe 5A1C     		adds	r2, r3, #1
 1574 0200 97F80614 		ldrb	r1, [r7, #1030]	@ zero_extendqisi2
 1575 0204 AF48     		ldr	r0, .L91+4
 1576 0206 1346     		mov	r3, r2
 1577 0208 DB00     		lsls	r3, r3, #3
 1578 020a 1344     		add	r3, r3, r2
 1579 020c 5B00     		lsls	r3, r3, #1
 1580 020e 1344     		add	r3, r3, r2
 1581 0210 0344     		add	r3, r3, r0
 1582 0212 0B44     		add	r3, r3, r1
 1583 0214 1B78     		ldrb	r3, [r3]	@ zero_extendqisi2
 1584 0216 002B     		cmp	r3, #0
 1585 0218 0FD0     		beq	.L54
 1586              		.loc 1 248 0 is_stmt 0 discriminator 1
 1587 021a 97F80734 		ldrb	r3, [r7, #1031]	@ zero_extendqisi2
 1588 021e 5A1E     		subs	r2, r3, #1
 1589 0220 97F80614 		ldrb	r1, [r7, #1030]	@ zero_extendqisi2
 1590 0224 A748     		ldr	r0, .L91+4
 1591 0226 1346     		mov	r3, r2
 1592 0228 DB00     		lsls	r3, r3, #3
 1593 022a 1344     		add	r3, r3, r2
 1594 022c 5B00     		lsls	r3, r3, #1
 1595 022e 1344     		add	r3, r3, r2
 1596 0230 0344     		add	r3, r3, r0
 1597 0232 0B44     		add	r3, r3, r1
 1598 0234 1B78     		ldrb	r3, [r3]	@ zero_extendqisi2
 1599 0236 002B     		cmp	r3, #0
 1600 0238 27D1     		bne	.L90
 1601              	.L54:
 249:pathfind.c    ****                     // END OF INSTRUCTION
 250:pathfind.c    ****                     endOfInstruction = 1;
 1602              		.loc 1 250 0 is_stmt 1
 1603 023a 0123     		movs	r3, #1
 1604 023c C7F80034 		str	r3, [r7, #1024]
 248:pathfind.c    ****                 if (map[nextMoveRow + 1][nextMoveCol] == 0 || map[nextMoveRow - 1][nextMoveCol] == 
 1605              		.loc 1 248 0
 1606 0240 23E0     		b	.L90
 1607              	.L53:
 251:pathfind.c    ****                 }
 252:pathfind.c    ****             } else { // doesn't account for stop condition yet
 253:pathfind.c    ****                 if (map[nextMoveRow ][nextMoveCol +1] == 0 || map[nextMoveRow][nextMoveCol-1] == 0 
 1608              		.loc 1 253 0
 1609 0242 97F80724 		ldrb	r2, [r7, #1031]	@ zero_extendqisi2
 1610 0246 97F80634 		ldrb	r3, [r7, #1030]	@ zero_extendqisi2
 1611 024a 591C     		adds	r1, r3, #1
ARM GAS  C:\Users\lger522\AppData\Local\Temp\ccu7wruq.s 			page 34


 1612 024c 9D48     		ldr	r0, .L91+4
 1613 024e 1346     		mov	r3, r2
 1614 0250 DB00     		lsls	r3, r3, #3
 1615 0252 1344     		add	r3, r3, r2
 1616 0254 5B00     		lsls	r3, r3, #1
 1617 0256 1344     		add	r3, r3, r2
 1618 0258 0344     		add	r3, r3, r0
 1619 025a 0B44     		add	r3, r3, r1
 1620 025c 1B78     		ldrb	r3, [r3]	@ zero_extendqisi2
 1621 025e 002B     		cmp	r3, #0
 1622 0260 0FD0     		beq	.L57
 1623              		.loc 1 253 0 is_stmt 0 discriminator 1
 1624 0262 97F80724 		ldrb	r2, [r7, #1031]	@ zero_extendqisi2
 1625 0266 97F80634 		ldrb	r3, [r7, #1030]	@ zero_extendqisi2
 1626 026a 591E     		subs	r1, r3, #1
 1627 026c 9548     		ldr	r0, .L91+4
 1628 026e 1346     		mov	r3, r2
 1629 0270 DB00     		lsls	r3, r3, #3
 1630 0272 1344     		add	r3, r3, r2
 1631 0274 5B00     		lsls	r3, r3, #1
 1632 0276 1344     		add	r3, r3, r2
 1633 0278 0344     		add	r3, r3, r0
 1634 027a 0B44     		add	r3, r3, r1
 1635 027c 1B78     		ldrb	r3, [r3]	@ zero_extendqisi2
 1636 027e 002B     		cmp	r3, #0
 1637 0280 04D1     		bne	.L56
 1638              	.L57:
 254:pathfind.c    ****                     // END OF INSTRUCTION
 255:pathfind.c    ****                     endOfInstruction = 1;
 1639              		.loc 1 255 0 is_stmt 1
 1640 0282 0123     		movs	r3, #1
 1641 0284 C7F80034 		str	r3, [r7, #1024]
 1642 0288 00E0     		b	.L56
 1643              	.L90:
 248:pathfind.c    ****                     // END OF INSTRUCTION
 1644              		.loc 1 248 0
 1645 028a 00BF     		nop
 1646              	.L56:
 256:pathfind.c    ****                 }
 257:pathfind.c    ****             }
 258:pathfind.c    ****             
 259:pathfind.c    ****             if (travelDir == 1 ) {
 1647              		.loc 1 259 0
 1648 028c 97F80534 		ldrb	r3, [r7, #1029]	@ zero_extendqisi2
 1649 0290 012B     		cmp	r3, #1
 1650 0292 0FD1     		bne	.L58
 260:pathfind.c    ****                 if (squares[i][0]  -1!= nextMoveRow){
 1651              		.loc 1 260 0
 1652 0294 D7F80834 		ldr	r3, [r7, #1032]
 1653 0298 5B00     		lsls	r3, r3, #1
 1654 029a 3A1D     		adds	r2, r7, #4
 1655 029c 1268     		ldr	r2, [r2]
 1656 029e 1344     		add	r3, r3, r2
 1657 02a0 1B78     		ldrb	r3, [r3]	@ zero_extendqisi2
 1658 02a2 5A1E     		subs	r2, r3, #1
 1659 02a4 97F80734 		ldrb	r3, [r7, #1031]	@ zero_extendqisi2
 1660 02a8 9A42     		cmp	r2, r3
ARM GAS  C:\Users\lger522\AppData\Local\Temp\ccu7wruq.s 			page 35


 1661 02aa 3ED0     		beq	.L60
 261:pathfind.c    ****                     // END OF INSTRUCTION
 262:pathfind.c    ****                     endOfInstruction = 1;
 1662              		.loc 1 262 0
 1663 02ac 0123     		movs	r3, #1
 1664 02ae C7F80034 		str	r3, [r7, #1024]
 1665 02b2 3AE0     		b	.L60
 1666              	.L58:
 263:pathfind.c    ****                 }
 264:pathfind.c    ****             } else if (travelDir == 2 ) {
 1667              		.loc 1 264 0
 1668 02b4 97F80534 		ldrb	r3, [r7, #1029]	@ zero_extendqisi2
 1669 02b8 022B     		cmp	r3, #2
 1670 02ba 0FD1     		bne	.L61
 265:pathfind.c    ****                 if (squares[i][0] +1!= nextMoveRow){
 1671              		.loc 1 265 0
 1672 02bc D7F80834 		ldr	r3, [r7, #1032]
 1673 02c0 5B00     		lsls	r3, r3, #1
 1674 02c2 3A1D     		adds	r2, r7, #4
 1675 02c4 1268     		ldr	r2, [r2]
 1676 02c6 1344     		add	r3, r3, r2
 1677 02c8 1B78     		ldrb	r3, [r3]	@ zero_extendqisi2
 1678 02ca 5A1C     		adds	r2, r3, #1
 1679 02cc 97F80734 		ldrb	r3, [r7, #1031]	@ zero_extendqisi2
 1680 02d0 9A42     		cmp	r2, r3
 1681 02d2 2AD0     		beq	.L60
 266:pathfind.c    ****                     // END OF INSTRUCTION
 267:pathfind.c    ****                     endOfInstruction = 1;
 1682              		.loc 1 267 0
 1683 02d4 0123     		movs	r3, #1
 1684 02d6 C7F80034 		str	r3, [r7, #1024]
 1685 02da 26E0     		b	.L60
 1686              	.L61:
 268:pathfind.c    ****                 }
 269:pathfind.c    ****             } else if (travelDir == 3 ) {
 1687              		.loc 1 269 0
 1688 02dc 97F80534 		ldrb	r3, [r7, #1029]	@ zero_extendqisi2
 1689 02e0 032B     		cmp	r3, #3
 1690 02e2 0FD1     		bne	.L63
 270:pathfind.c    ****                 if (squares[i][1]+1 != nextMoveCol){
 1691              		.loc 1 270 0
 1692 02e4 D7F80834 		ldr	r3, [r7, #1032]
 1693 02e8 5B00     		lsls	r3, r3, #1
 1694 02ea 3A1D     		adds	r2, r7, #4
 1695 02ec 1268     		ldr	r2, [r2]
 1696 02ee 1344     		add	r3, r3, r2
 1697 02f0 5B78     		ldrb	r3, [r3, #1]	@ zero_extendqisi2
 1698 02f2 5A1C     		adds	r2, r3, #1
 1699 02f4 97F80634 		ldrb	r3, [r7, #1030]	@ zero_extendqisi2
 1700 02f8 9A42     		cmp	r2, r3
 1701 02fa 16D0     		beq	.L60
 271:pathfind.c    ****                     // END OF INSTRUCTION
 272:pathfind.c    ****                     endOfInstruction = 1;
 1702              		.loc 1 272 0
 1703 02fc 0123     		movs	r3, #1
 1704 02fe C7F80034 		str	r3, [r7, #1024]
 1705 0302 12E0     		b	.L60
ARM GAS  C:\Users\lger522\AppData\Local\Temp\ccu7wruq.s 			page 36


 1706              	.L63:
 273:pathfind.c    ****                 }
 274:pathfind.c    ****             } else if (travelDir == 4 ) {
 1707              		.loc 1 274 0
 1708 0304 97F80534 		ldrb	r3, [r7, #1029]	@ zero_extendqisi2
 1709 0308 042B     		cmp	r3, #4
 1710 030a 0ED1     		bne	.L60
 275:pathfind.c    ****                 if (squares[i][1] -1!= nextMoveCol ) {
 1711              		.loc 1 275 0
 1712 030c D7F80834 		ldr	r3, [r7, #1032]
 1713 0310 5B00     		lsls	r3, r3, #1
 1714 0312 3A1D     		adds	r2, r7, #4
 1715 0314 1268     		ldr	r2, [r2]
 1716 0316 1344     		add	r3, r3, r2
 1717 0318 5B78     		ldrb	r3, [r3, #1]	@ zero_extendqisi2
 1718 031a 5A1E     		subs	r2, r3, #1
 1719 031c 97F80634 		ldrb	r3, [r7, #1030]	@ zero_extendqisi2
 1720 0320 9A42     		cmp	r2, r3
 1721 0322 02D0     		beq	.L60
 276:pathfind.c    ****                     // END OF INSTRUCTION
 277:pathfind.c    ****                     endOfInstruction = 1;
 1722              		.loc 1 277 0
 1723 0324 0123     		movs	r3, #1
 1724 0326 C7F80034 		str	r3, [r7, #1024]
 1725              	.L60:
 278:pathfind.c    ****                 }
 279:pathfind.c    ****             }
 280:pathfind.c    ****             
 281:pathfind.c    ****            if (endOfInstruction == 0) {
 1726              		.loc 1 281 0
 1727 032a D7F80034 		ldr	r3, [r7, #1024]
 1728 032e 002B     		cmp	r3, #0
 1729 0330 18D1     		bne	.L49
 282:pathfind.c    ****                 i++;
 1730              		.loc 1 282 0
 1731 0332 D7F80834 		ldr	r3, [r7, #1032]
 1732 0336 0133     		adds	r3, r3, #1
 1733 0338 C7F80834 		str	r3, [r7, #1032]
 283:pathfind.c    ****                 nextMoveRow = squares[i+1][0];
 1734              		.loc 1 283 0
 1735 033c D7F80834 		ldr	r3, [r7, #1032]
 1736 0340 0133     		adds	r3, r3, #1
 1737 0342 5B00     		lsls	r3, r3, #1
 1738 0344 3A1D     		adds	r2, r7, #4
 1739 0346 1268     		ldr	r2, [r2]
 1740 0348 1344     		add	r3, r3, r2
 1741 034a 1B78     		ldrb	r3, [r3]
 1742 034c 87F80734 		strb	r3, [r7, #1031]
 284:pathfind.c    ****                 nextMoveCol = squares[i+1][1];
 1743              		.loc 1 284 0
 1744 0350 D7F80834 		ldr	r3, [r7, #1032]
 1745 0354 0133     		adds	r3, r3, #1
 1746 0356 5B00     		lsls	r3, r3, #1
 1747 0358 3A1D     		adds	r2, r7, #4
 1748 035a 1268     		ldr	r2, [r2]
 1749 035c 1344     		add	r3, r3, r2
 1750 035e 5B78     		ldrb	r3, [r3, #1]
ARM GAS  C:\Users\lger522\AppData\Local\Temp\ccu7wruq.s 			page 37


 1751 0360 87F80634 		strb	r3, [r7, #1030]
 1752              	.L49:
 242:pathfind.c    ****             if (startRow == 55) {
 1753              		.loc 1 242 0
 1754 0364 D7F80034 		ldr	r3, [r7, #1024]
 1755 0368 002B     		cmp	r3, #0
 1756 036a 3FF434AF 		beq	.L65
 1757              	.L51:
 285:pathfind.c    ****             }
 286:pathfind.c    ****             
 287:pathfind.c    ****         }
 288:pathfind.c    ****         
 289:pathfind.c    ****         // Work out which instruction
 290:pathfind.c    ****             // 0 - Stop 
 291:pathfind.c    ****             // 1 - Left
 292:pathfind.c    ****             // 2 - Straight
 293:pathfind.c    ****             // 3 - Right
 294:pathfind.c    ****             // 4 - 180
 295:pathfind.c    ****             // 5 - Left w/distance
 296:pathfind.c    ****             // 6 - Straight w/distance
 297:pathfind.c    ****             // 7 - Right w/distance
 298:pathfind.c    ****             // 8 - 180 w/distance
 299:pathfind.c    ****         if(travelDir == 1) {
 1758              		.loc 1 299 0
 1759 036e 97F80534 		ldrb	r3, [r7, #1029]	@ zero_extendqisi2
 1760 0372 012B     		cmp	r3, #1
 1761 0374 38D1     		bne	.L66
 300:pathfind.c    ****             if(robotDirection == 1) {
 1762              		.loc 1 300 0
 1763 0376 524B     		ldr	r3, .L91
 1764 0378 1B68     		ldr	r3, [r3]
 1765 037a 012B     		cmp	r3, #1
 1766 037c 09D1     		bne	.L67
 301:pathfind.c    ****                 instruction[instructionCounter] = 2;
 1767              		.loc 1 301 0
 1768 037e 524B     		ldr	r3, .L91+8
 1769 0380 1B68     		ldr	r3, [r3]
 1770 0382 1A46     		mov	r2, r3
 1771 0384 07F10C03 		add	r3, r7, #12
 1772 0388 1B68     		ldr	r3, [r3]
 1773 038a 1344     		add	r3, r3, r2
 1774 038c 0222     		movs	r2, #2
 1775 038e 1A70     		strb	r2, [r3]
 1776 0390 EFE0     		b	.L71
 1777              	.L67:
 302:pathfind.c    ****             } else if(robotDirection == 2) {
 1778              		.loc 1 302 0
 1779 0392 4B4B     		ldr	r3, .L91
 1780 0394 1B68     		ldr	r3, [r3]
 1781 0396 022B     		cmp	r3, #2
 1782 0398 09D1     		bne	.L69
 303:pathfind.c    ****                 instruction[instructionCounter] = 4;
 1783              		.loc 1 303 0
 1784 039a 4B4B     		ldr	r3, .L91+8
 1785 039c 1B68     		ldr	r3, [r3]
 1786 039e 1A46     		mov	r2, r3
 1787 03a0 07F10C03 		add	r3, r7, #12
ARM GAS  C:\Users\lger522\AppData\Local\Temp\ccu7wruq.s 			page 38


 1788 03a4 1B68     		ldr	r3, [r3]
 1789 03a6 1344     		add	r3, r3, r2
 1790 03a8 0422     		movs	r2, #4
 1791 03aa 1A70     		strb	r2, [r3]
 1792 03ac E1E0     		b	.L71
 1793              	.L69:
 304:pathfind.c    ****             } else if(robotDirection == 3) {
 1794              		.loc 1 304 0
 1795 03ae 444B     		ldr	r3, .L91
 1796 03b0 1B68     		ldr	r3, [r3]
 1797 03b2 032B     		cmp	r3, #3
 1798 03b4 09D1     		bne	.L70
 305:pathfind.c    ****                 instruction[instructionCounter] = 1;
 1799              		.loc 1 305 0
 1800 03b6 444B     		ldr	r3, .L91+8
 1801 03b8 1B68     		ldr	r3, [r3]
 1802 03ba 1A46     		mov	r2, r3
 1803 03bc 07F10C03 		add	r3, r7, #12
 1804 03c0 1B68     		ldr	r3, [r3]
 1805 03c2 1344     		add	r3, r3, r2
 1806 03c4 0122     		movs	r2, #1
 1807 03c6 1A70     		strb	r2, [r3]
 1808 03c8 D3E0     		b	.L71
 1809              	.L70:
 306:pathfind.c    ****             } else if(robotDirection == 4) {
 1810              		.loc 1 306 0
 1811 03ca 3D4B     		ldr	r3, .L91
 1812 03cc 1B68     		ldr	r3, [r3]
 1813 03ce 042B     		cmp	r3, #4
 1814 03d0 40F0CF80 		bne	.L71
 307:pathfind.c    ****                 instruction[instructionCounter] = 3;
 1815              		.loc 1 307 0
 1816 03d4 3C4B     		ldr	r3, .L91+8
 1817 03d6 1B68     		ldr	r3, [r3]
 1818 03d8 1A46     		mov	r2, r3
 1819 03da 07F10C03 		add	r3, r7, #12
 1820 03de 1B68     		ldr	r3, [r3]
 1821 03e0 1344     		add	r3, r3, r2
 1822 03e2 0322     		movs	r2, #3
 1823 03e4 1A70     		strb	r2, [r3]
 1824 03e6 C4E0     		b	.L71
 1825              	.L66:
 308:pathfind.c    ****             } 
 309:pathfind.c    ****         } else if (travelDir == 2) {
 1826              		.loc 1 309 0
 1827 03e8 97F80534 		ldrb	r3, [r7, #1029]	@ zero_extendqisi2
 1828 03ec 022B     		cmp	r3, #2
 1829 03ee 38D1     		bne	.L72
 310:pathfind.c    ****             if(robotDirection == 1) {
 1830              		.loc 1 310 0
 1831 03f0 334B     		ldr	r3, .L91
 1832 03f2 1B68     		ldr	r3, [r3]
 1833 03f4 012B     		cmp	r3, #1
 1834 03f6 09D1     		bne	.L73
 311:pathfind.c    ****                 instruction[instructionCounter] = 4;
 1835              		.loc 1 311 0
 1836 03f8 334B     		ldr	r3, .L91+8
ARM GAS  C:\Users\lger522\AppData\Local\Temp\ccu7wruq.s 			page 39


 1837 03fa 1B68     		ldr	r3, [r3]
 1838 03fc 1A46     		mov	r2, r3
 1839 03fe 07F10C03 		add	r3, r7, #12
 1840 0402 1B68     		ldr	r3, [r3]
 1841 0404 1344     		add	r3, r3, r2
 1842 0406 0422     		movs	r2, #4
 1843 0408 1A70     		strb	r2, [r3]
 1844 040a B2E0     		b	.L71
 1845              	.L73:
 312:pathfind.c    ****             } else if(robotDirection == 2) {
 1846              		.loc 1 312 0
 1847 040c 2C4B     		ldr	r3, .L91
 1848 040e 1B68     		ldr	r3, [r3]
 1849 0410 022B     		cmp	r3, #2
 1850 0412 09D1     		bne	.L75
 313:pathfind.c    ****                 instruction[instructionCounter] = 2;
 1851              		.loc 1 313 0
 1852 0414 2C4B     		ldr	r3, .L91+8
 1853 0416 1B68     		ldr	r3, [r3]
 1854 0418 1A46     		mov	r2, r3
 1855 041a 07F10C03 		add	r3, r7, #12
 1856 041e 1B68     		ldr	r3, [r3]
 1857 0420 1344     		add	r3, r3, r2
 1858 0422 0222     		movs	r2, #2
 1859 0424 1A70     		strb	r2, [r3]
 1860 0426 A4E0     		b	.L71
 1861              	.L75:
 314:pathfind.c    ****             } else if(robotDirection == 3) {
 1862              		.loc 1 314 0
 1863 0428 254B     		ldr	r3, .L91
 1864 042a 1B68     		ldr	r3, [r3]
 1865 042c 032B     		cmp	r3, #3
 1866 042e 09D1     		bne	.L76
 315:pathfind.c    ****                 instruction[instructionCounter] = 3;
 1867              		.loc 1 315 0
 1868 0430 254B     		ldr	r3, .L91+8
 1869 0432 1B68     		ldr	r3, [r3]
 1870 0434 1A46     		mov	r2, r3
 1871 0436 07F10C03 		add	r3, r7, #12
 1872 043a 1B68     		ldr	r3, [r3]
 1873 043c 1344     		add	r3, r3, r2
 1874 043e 0322     		movs	r2, #3
 1875 0440 1A70     		strb	r2, [r3]
 1876 0442 96E0     		b	.L71
 1877              	.L76:
 316:pathfind.c    ****             } else if(robotDirection == 4) {
 1878              		.loc 1 316 0
 1879 0444 1E4B     		ldr	r3, .L91
 1880 0446 1B68     		ldr	r3, [r3]
 1881 0448 042B     		cmp	r3, #4
 1882 044a 40F09280 		bne	.L71
 317:pathfind.c    ****                 instruction[instructionCounter] = 1;
 1883              		.loc 1 317 0
 1884 044e 1E4B     		ldr	r3, .L91+8
 1885 0450 1B68     		ldr	r3, [r3]
 1886 0452 1A46     		mov	r2, r3
 1887 0454 07F10C03 		add	r3, r7, #12
ARM GAS  C:\Users\lger522\AppData\Local\Temp\ccu7wruq.s 			page 40


 1888 0458 1B68     		ldr	r3, [r3]
 1889 045a 1344     		add	r3, r3, r2
 1890 045c 0122     		movs	r2, #1
 1891 045e 1A70     		strb	r2, [r3]
 1892 0460 87E0     		b	.L71
 1893              	.L72:
 318:pathfind.c    ****             } 
 319:pathfind.c    ****         } else if (travelDir == 3) {
 1894              		.loc 1 319 0
 1895 0462 97F80534 		ldrb	r3, [r7, #1029]	@ zero_extendqisi2
 1896 0466 032B     		cmp	r3, #3
 1897 0468 3ED1     		bne	.L77
 320:pathfind.c    ****             if(robotDirection == 1) {
 1898              		.loc 1 320 0
 1899 046a 154B     		ldr	r3, .L91
 1900 046c 1B68     		ldr	r3, [r3]
 1901 046e 012B     		cmp	r3, #1
 1902 0470 09D1     		bne	.L78
 321:pathfind.c    ****                 instruction[instructionCounter] = 3;
 1903              		.loc 1 321 0
 1904 0472 154B     		ldr	r3, .L91+8
 1905 0474 1B68     		ldr	r3, [r3]
 1906 0476 1A46     		mov	r2, r3
 1907 0478 07F10C03 		add	r3, r7, #12
 1908 047c 1B68     		ldr	r3, [r3]
 1909 047e 1344     		add	r3, r3, r2
 1910 0480 0322     		movs	r2, #3
 1911 0482 1A70     		strb	r2, [r3]
 1912 0484 75E0     		b	.L71
 1913              	.L78:
 322:pathfind.c    ****             } else if(robotDirection == 2) {
 1914              		.loc 1 322 0
 1915 0486 0E4B     		ldr	r3, .L91
 1916 0488 1B68     		ldr	r3, [r3]
 1917 048a 022B     		cmp	r3, #2
 1918 048c 09D1     		bne	.L80
 323:pathfind.c    ****                 instruction[instructionCounter] = 1;
 1919              		.loc 1 323 0
 1920 048e 0E4B     		ldr	r3, .L91+8
 1921 0490 1B68     		ldr	r3, [r3]
 1922 0492 1A46     		mov	r2, r3
 1923 0494 07F10C03 		add	r3, r7, #12
 1924 0498 1B68     		ldr	r3, [r3]
 1925 049a 1344     		add	r3, r3, r2
 1926 049c 0122     		movs	r2, #1
 1927 049e 1A70     		strb	r2, [r3]
 1928 04a0 67E0     		b	.L71
 1929              	.L80:
 324:pathfind.c    ****             } else if(robotDirection == 3) {
 1930              		.loc 1 324 0
 1931 04a2 074B     		ldr	r3, .L91
 1932 04a4 1B68     		ldr	r3, [r3]
 1933 04a6 032B     		cmp	r3, #3
 1934 04a8 10D1     		bne	.L81
 325:pathfind.c    ****                 instruction[instructionCounter] = 2;
 1935              		.loc 1 325 0
 1936 04aa 074B     		ldr	r3, .L91+8
ARM GAS  C:\Users\lger522\AppData\Local\Temp\ccu7wruq.s 			page 41


 1937 04ac 1B68     		ldr	r3, [r3]
 1938 04ae 1A46     		mov	r2, r3
 1939 04b0 07F10C03 		add	r3, r7, #12
 1940 04b4 1B68     		ldr	r3, [r3]
 1941 04b6 1344     		add	r3, r3, r2
 1942 04b8 0222     		movs	r2, #2
 1943 04ba 1A70     		strb	r2, [r3]
 1944 04bc 59E0     		b	.L71
 1945              	.L92:
 1946 04be 00BF     		.align	2
 1947              	.L91:
 1948 04c0 00000000 		.word	robotDirection
 1949 04c4 00000000 		.word	map
 1950 04c8 00000000 		.word	instructionCounter
 1951              	.L81:
 326:pathfind.c    ****             } else if(robotDirection == 4) {
 1952              		.loc 1 326 0
 1953 04cc 454B     		ldr	r3, .L93
 1954 04ce 1B68     		ldr	r3, [r3]
 1955 04d0 042B     		cmp	r3, #4
 1956 04d2 4ED1     		bne	.L71
 327:pathfind.c    ****                 instruction[instructionCounter] = 4;
 1957              		.loc 1 327 0
 1958 04d4 444B     		ldr	r3, .L93+4
 1959 04d6 1B68     		ldr	r3, [r3]
 1960 04d8 1A46     		mov	r2, r3
 1961 04da 07F10C03 		add	r3, r7, #12
 1962 04de 1B68     		ldr	r3, [r3]
 1963 04e0 1344     		add	r3, r3, r2
 1964 04e2 0422     		movs	r2, #4
 1965 04e4 1A70     		strb	r2, [r3]
 1966 04e6 44E0     		b	.L71
 1967              	.L77:
 328:pathfind.c    ****             } 
 329:pathfind.c    ****         } else if (travelDir == 4) {
 1968              		.loc 1 329 0
 1969 04e8 97F80534 		ldrb	r3, [r7, #1029]	@ zero_extendqisi2
 1970 04ec 042B     		cmp	r3, #4
 1971 04ee 37D1     		bne	.L82
 330:pathfind.c    ****             if(robotDirection == 1) {
 1972              		.loc 1 330 0
 1973 04f0 3C4B     		ldr	r3, .L93
 1974 04f2 1B68     		ldr	r3, [r3]
 1975 04f4 012B     		cmp	r3, #1
 1976 04f6 09D1     		bne	.L83
 331:pathfind.c    ****                 instruction[instructionCounter] = 1;
 1977              		.loc 1 331 0
 1978 04f8 3B4B     		ldr	r3, .L93+4
 1979 04fa 1B68     		ldr	r3, [r3]
 1980 04fc 1A46     		mov	r2, r3
 1981 04fe 07F10C03 		add	r3, r7, #12
 1982 0502 1B68     		ldr	r3, [r3]
 1983 0504 1344     		add	r3, r3, r2
 1984 0506 0122     		movs	r2, #1
 1985 0508 1A70     		strb	r2, [r3]
 1986 050a 32E0     		b	.L71
 1987              	.L83:
ARM GAS  C:\Users\lger522\AppData\Local\Temp\ccu7wruq.s 			page 42


 332:pathfind.c    ****             } else if(robotDirection == 2) {
 1988              		.loc 1 332 0
 1989 050c 354B     		ldr	r3, .L93
 1990 050e 1B68     		ldr	r3, [r3]
 1991 0510 022B     		cmp	r3, #2
 1992 0512 09D1     		bne	.L85
 333:pathfind.c    ****                 instruction[instructionCounter] = 3;
 1993              		.loc 1 333 0
 1994 0514 344B     		ldr	r3, .L93+4
 1995 0516 1B68     		ldr	r3, [r3]
 1996 0518 1A46     		mov	r2, r3
 1997 051a 07F10C03 		add	r3, r7, #12
 1998 051e 1B68     		ldr	r3, [r3]
 1999 0520 1344     		add	r3, r3, r2
 2000 0522 0322     		movs	r2, #3
 2001 0524 1A70     		strb	r2, [r3]
 2002 0526 24E0     		b	.L71
 2003              	.L85:
 334:pathfind.c    ****             } else if(robotDirection == 3) {
 2004              		.loc 1 334 0
 2005 0528 2E4B     		ldr	r3, .L93
 2006 052a 1B68     		ldr	r3, [r3]
 2007 052c 032B     		cmp	r3, #3
 2008 052e 09D1     		bne	.L86
 335:pathfind.c    ****                 instruction[instructionCounter] = 4;
 2009              		.loc 1 335 0
 2010 0530 2D4B     		ldr	r3, .L93+4
 2011 0532 1B68     		ldr	r3, [r3]
 2012 0534 1A46     		mov	r2, r3
 2013 0536 07F10C03 		add	r3, r7, #12
 2014 053a 1B68     		ldr	r3, [r3]
 2015 053c 1344     		add	r3, r3, r2
 2016 053e 0422     		movs	r2, #4
 2017 0540 1A70     		strb	r2, [r3]
 2018 0542 16E0     		b	.L71
 2019              	.L86:
 336:pathfind.c    ****             } else if(robotDirection == 4) {
 2020              		.loc 1 336 0
 2021 0544 274B     		ldr	r3, .L93
 2022 0546 1B68     		ldr	r3, [r3]
 2023 0548 042B     		cmp	r3, #4
 2024 054a 12D1     		bne	.L71
 337:pathfind.c    ****                 instruction[instructionCounter] = 2;
 2025              		.loc 1 337 0
 2026 054c 264B     		ldr	r3, .L93+4
 2027 054e 1B68     		ldr	r3, [r3]
 2028 0550 1A46     		mov	r2, r3
 2029 0552 07F10C03 		add	r3, r7, #12
 2030 0556 1B68     		ldr	r3, [r3]
 2031 0558 1344     		add	r3, r3, r2
 2032 055a 0222     		movs	r2, #2
 2033 055c 1A70     		strb	r2, [r3]
 2034 055e 08E0     		b	.L71
 2035              	.L82:
 338:pathfind.c    ****             } 
 339:pathfind.c    ****         } else {
 340:pathfind.c    ****             instruction[instructionCounter] = 0;
ARM GAS  C:\Users\lger522\AppData\Local\Temp\ccu7wruq.s 			page 43


 2036              		.loc 1 340 0
 2037 0560 214B     		ldr	r3, .L93+4
 2038 0562 1B68     		ldr	r3, [r3]
 2039 0564 1A46     		mov	r2, r3
 2040 0566 07F10C03 		add	r3, r7, #12
 2041 056a 1B68     		ldr	r3, [r3]
 2042 056c 1344     		add	r3, r3, r2
 2043 056e 0022     		movs	r2, #0
 2044 0570 1A70     		strb	r2, [r3]
 2045              	.L71:
 341:pathfind.c    ****         }
 342:pathfind.c    ****         if (travelDir != 0) {
 2046              		.loc 1 342 0
 2047 0572 97F80534 		ldrb	r3, [r7, #1029]	@ zero_extendqisi2
 2048 0576 002B     		cmp	r3, #0
 2049 0578 03D0     		beq	.L87
 343:pathfind.c    ****             robotDirection = travelDir;
 2050              		.loc 1 343 0
 2051 057a 97F80534 		ldrb	r3, [r7, #1029]	@ zero_extendqisi2
 2052 057e 194A     		ldr	r2, .L93
 2053 0580 1360     		str	r3, [r2]
 2054              	.L87:
 344:pathfind.c    ****         }
 345:pathfind.c    ****         
 346:pathfind.c    ****         if (instruction[instructionCounter] != 0) {  
 2055              		.loc 1 346 0
 2056 0582 194B     		ldr	r3, .L93+4
 2057 0584 1B68     		ldr	r3, [r3]
 2058 0586 1A46     		mov	r2, r3
 2059 0588 07F10C03 		add	r3, r7, #12
 2060 058c 1B68     		ldr	r3, [r3]
 2061 058e 1344     		add	r3, r3, r2
 2062 0590 1B78     		ldrb	r3, [r3]	@ zero_extendqisi2
 2063 0592 002B     		cmp	r3, #0
 2064 0594 0FD0     		beq	.L88
 347:pathfind.c    ****             if (!firstValidInstruction) {
 2065              		.loc 1 347 0
 2066 0596 154B     		ldr	r3, .L93+8
 2067 0598 1B68     		ldr	r3, [r3]
 2068 059a 002B     		cmp	r3, #0
 2069 059c 0BD1     		bne	.L88
 348:pathfind.c    ****                 instruction[instructionCounter-1] = 2;
 2070              		.loc 1 348 0
 2071 059e 124B     		ldr	r3, .L93+4
 2072 05a0 1B68     		ldr	r3, [r3]
 2073 05a2 013B     		subs	r3, r3, #1
 2074 05a4 07F10C02 		add	r2, r7, #12
 2075 05a8 1268     		ldr	r2, [r2]
 2076 05aa 1344     		add	r3, r3, r2
 2077 05ac 0222     		movs	r2, #2
 2078 05ae 1A70     		strb	r2, [r3]
 349:pathfind.c    ****                 firstValidInstruction = 1;
 2079              		.loc 1 349 0
 2080 05b0 0E4B     		ldr	r3, .L93+8
 2081 05b2 0122     		movs	r2, #1
 2082 05b4 1A60     		str	r2, [r3]
 2083              	.L88:
ARM GAS  C:\Users\lger522\AppData\Local\Temp\ccu7wruq.s 			page 44


 350:pathfind.c    ****             }
 351:pathfind.c    ****         }
 352:pathfind.c    ****         
 353:pathfind.c    ****         instructionCounter++;
 2084              		.loc 1 353 0 discriminator 2
 2085 05b6 0C4B     		ldr	r3, .L93+4
 2086 05b8 1B68     		ldr	r3, [r3]
 2087 05ba 0133     		adds	r3, r3, #1
 2088 05bc 0A4A     		ldr	r2, .L93+4
 2089 05be 1360     		str	r3, [r2]
 2090              	.LBE12:
 213:pathfind.c    ****         
 2091              		.loc 1 213 0 discriminator 2
 2092 05c0 D7F80834 		ldr	r3, [r7, #1032]
 2093 05c4 0133     		adds	r3, r3, #1
 2094 05c6 C7F80834 		str	r3, [r7, #1032]
 2095              	.L40:
 213:pathfind.c    ****         
 2096              		.loc 1 213 0 is_stmt 0 discriminator 1
 2097 05ca D7F80834 		ldr	r3, [r7, #1032]
 2098 05ce B3F5F97F 		cmp	r3, #498
 2099 05d2 7FF788AD 		ble	.L89
 2100              	.LBE11:
 354:pathfind.c    ****         
 355:pathfind.c    ****         
 356:pathfind.c    ****         // Add info to lists
 357:pathfind.c    ****         
 358:pathfind.c    ****     }
 359:pathfind.c    **** 
 360:pathfind.c    **** }
 2101              		.loc 1 360 0 is_stmt 1
 2102 05d6 00BF     		nop
 2103 05d8 07F21C47 		addw	r7, r7, #1052
 2104              		.cfi_def_cfa_offset 4
 2105 05dc BD46     		mov	sp, r7
 2106              		.cfi_def_cfa_register 13
 2107              		@ sp needed
 2108 05de 80BC     		pop	{r7}
 2109              		.cfi_restore 7
 2110              		.cfi_def_cfa_offset 0
 2111 05e0 7047     		bx	lr
 2112              	.L94:
 2113 05e2 00BF     		.align	2
 2114              	.L93:
 2115 05e4 00000000 		.word	robotDirection
 2116 05e8 00000000 		.word	instructionCounter
 2117 05ec 00000000 		.word	firstValidInstruction
 2118              		.cfi_endproc
 2119              	.LFE66:
 2120              		.size	generateInstructionList, .-generateInstructionList
 2121              		.text
 2122              	.Letext0:
 2123              		.file 2 "c:\\program files (x86)\\cypress\\psoc creator\\4.2\\psoc creator\\import\\gnu\\arm\\5.4.
 2124              		.file 3 "c:\\program files (x86)\\cypress\\psoc creator\\4.2\\psoc creator\\import\\gnu\\arm\\5.4.
 2125              		.file 4 "Generated_Source\\PSoC5/core_cm3.h"
 2126              		.file 5 "map.h"
 2127              		.section	.debug_info,"",%progbits
ARM GAS  C:\Users\lger522\AppData\Local\Temp\ccu7wruq.s 			page 45


 2128              	.Ldebug_info0:
 2129 0000 DA040000 		.4byte	0x4da
 2130 0004 0400     		.2byte	0x4
 2131 0006 00000000 		.4byte	.Ldebug_abbrev0
 2132 000a 04       		.byte	0x4
 2133 000b 01       		.uleb128 0x1
 2134 000c 15000000 		.4byte	.LASF54
 2135 0010 0C       		.byte	0xc
 2136 0011 4D020000 		.4byte	.LASF55
 2137 0015 A7010000 		.4byte	.LASF56
 2138 0019 00000000 		.4byte	.Ldebug_ranges0+0
 2139 001d 00000000 		.4byte	0
 2140 0021 00000000 		.4byte	.Ldebug_line0
 2141 0025 02       		.uleb128 0x2
 2142 0026 01       		.byte	0x1
 2143 0027 06       		.byte	0x6
 2144 0028 24030000 		.4byte	.LASF0
 2145 002c 02       		.uleb128 0x2
 2146 002d 01       		.byte	0x1
 2147 002e 08       		.byte	0x8
 2148 002f 8C010000 		.4byte	.LASF1
 2149 0033 02       		.uleb128 0x2
 2150 0034 02       		.byte	0x2
 2151 0035 05       		.byte	0x5
 2152 0036 C5020000 		.4byte	.LASF2
 2153 003a 02       		.uleb128 0x2
 2154 003b 02       		.byte	0x2
 2155 003c 07       		.byte	0x7
 2156 003d C9000000 		.4byte	.LASF3
 2157 0041 03       		.uleb128 0x3
 2158 0042 BF000000 		.4byte	.LASF9
 2159 0046 02       		.byte	0x2
 2160 0047 3F       		.byte	0x3f
 2161 0048 4C000000 		.4byte	0x4c
 2162 004c 02       		.uleb128 0x2
 2163 004d 04       		.byte	0x4
 2164 004e 05       		.byte	0x5
 2165 004f FE020000 		.4byte	.LASF4
 2166 0053 02       		.uleb128 0x2
 2167 0054 04       		.byte	0x4
 2168 0055 07       		.byte	0x7
 2169 0056 2D010000 		.4byte	.LASF5
 2170 005a 02       		.uleb128 0x2
 2171 005b 08       		.byte	0x8
 2172 005c 05       		.byte	0x5
 2173 005d 73020000 		.4byte	.LASF6
 2174 0061 02       		.uleb128 0x2
 2175 0062 08       		.byte	0x8
 2176 0063 07       		.byte	0x7
 2177 0064 0C020000 		.4byte	.LASF7
 2178 0068 04       		.uleb128 0x4
 2179 0069 04       		.byte	0x4
 2180 006a 05       		.byte	0x5
 2181 006b 696E7400 		.ascii	"int\000"
 2182 006f 02       		.uleb128 0x2
 2183 0070 04       		.byte	0x4
 2184 0071 07       		.byte	0x7
ARM GAS  C:\Users\lger522\AppData\Local\Temp\ccu7wruq.s 			page 46


 2185 0072 9A010000 		.4byte	.LASF8
 2186 0076 03       		.uleb128 0x3
 2187 0077 F9000000 		.4byte	.LASF10
 2188 007b 03       		.byte	0x3
 2189 007c 2C       		.byte	0x2c
 2190 007d 41000000 		.4byte	0x41
 2191 0081 02       		.uleb128 0x2
 2192 0082 04       		.byte	0x4
 2193 0083 04       		.byte	0x4
 2194 0084 12010000 		.4byte	.LASF11
 2195 0088 02       		.uleb128 0x2
 2196 0089 08       		.byte	0x8
 2197 008a 04       		.byte	0x4
 2198 008b 30030000 		.4byte	.LASF12
 2199 008f 02       		.uleb128 0x2
 2200 0090 01       		.byte	0x1
 2201 0091 08       		.byte	0x8
 2202 0092 81020000 		.4byte	.LASF13
 2203 0096 02       		.uleb128 0x2
 2204 0097 08       		.byte	0x8
 2205 0098 04       		.byte	0x4
 2206 0099 07030000 		.4byte	.LASF14
 2207 009d 02       		.uleb128 0x2
 2208 009e 04       		.byte	0x4
 2209 009f 07       		.byte	0x7
 2210 00a0 64020000 		.4byte	.LASF15
 2211 00a4 05       		.uleb128 0x5
 2212 00a5 04       		.byte	0x4
 2213 00a6 2C000000 		.4byte	0x2c
 2214 00aa 06       		.uleb128 0x6
 2215 00ab F5020000 		.4byte	.LASF19
 2216 00af 01       		.byte	0x1
 2217 00b0 22       		.byte	0x22
 2218 00b1 00000000 		.4byte	.LFB64
 2219 00b5 8C000000 		.4byte	.LFE64-.LFB64
 2220 00b9 01       		.uleb128 0x1
 2221 00ba 9C       		.byte	0x9c
 2222 00bb 00010000 		.4byte	0x100
 2223 00bf 07       		.uleb128 0x7
 2224 00c0 E9020000 		.4byte	.LASF16
 2225 00c4 01       		.byte	0x1
 2226 00c5 22       		.byte	0x22
 2227 00c6 A4000000 		.4byte	0xa4
 2228 00ca 02       		.uleb128 0x2
 2229 00cb 91       		.byte	0x91
 2230 00cc 6C       		.sleb128 -20
 2231 00cd 07       		.uleb128 0x7
 2232 00ce 09010000 		.4byte	.LASF17
 2233 00d2 01       		.byte	0x1
 2234 00d3 22       		.byte	0x22
 2235 00d4 A4000000 		.4byte	0xa4
 2236 00d8 02       		.uleb128 0x2
 2237 00d9 91       		.byte	0x91
 2238 00da 68       		.sleb128 -24
 2239 00db 07       		.uleb128 0x7
 2240 00dc BD020000 		.4byte	.LASF18
 2241 00e0 01       		.byte	0x1
ARM GAS  C:\Users\lger522\AppData\Local\Temp\ccu7wruq.s 			page 47


 2242 00e1 22       		.byte	0x22
 2243 00e2 10010000 		.4byte	0x110
 2244 00e6 02       		.uleb128 0x2
 2245 00e7 91       		.byte	0x91
 2246 00e8 64       		.sleb128 -28
 2247 00e9 08       		.uleb128 0x8
 2248 00ea 0C000000 		.4byte	.LBB2
 2249 00ee 60000000 		.4byte	.LBE2-.LBB2
 2250 00f2 09       		.uleb128 0x9
 2251 00f3 6900     		.ascii	"i\000"
 2252 00f5 01       		.byte	0x1
 2253 00f6 23       		.byte	0x23
 2254 00f7 68000000 		.4byte	0x68
 2255 00fb 02       		.uleb128 0x2
 2256 00fc 91       		.byte	0x91
 2257 00fd 74       		.sleb128 -12
 2258 00fe 00       		.byte	0
 2259 00ff 00       		.byte	0
 2260 0100 0A       		.uleb128 0xa
 2261 0101 2C000000 		.4byte	0x2c
 2262 0105 10010000 		.4byte	0x110
 2263 0109 0B       		.uleb128 0xb
 2264 010a 9D000000 		.4byte	0x9d
 2265 010e 01       		.byte	0x1
 2266 010f 00       		.byte	0
 2267 0110 05       		.uleb128 0x5
 2268 0111 04       		.byte	0x4
 2269 0112 00010000 		.4byte	0x100
 2270 0116 0C       		.uleb128 0xc
 2271 0117 62667300 		.ascii	"bfs\000"
 2272 011b 01       		.byte	0x1
 2273 011c 31       		.byte	0x31
 2274 011d 00000000 		.4byte	.LFB65
 2275 0121 88070000 		.4byte	.LFE65-.LFB65
 2276 0125 01       		.uleb128 0x1
 2277 0126 9C       		.byte	0x9c
 2278 0127 95020000 		.4byte	0x295
 2279 012b 07       		.uleb128 0x7
 2280 012c BD020000 		.4byte	.LASF18
 2281 0130 01       		.byte	0x1
 2282 0131 31       		.byte	0x31
 2283 0132 10010000 		.4byte	0x110
 2284 0136 03       		.uleb128 0x3
 2285 0137 91       		.byte	0x91
 2286 0138 AC59     		.sleb128 -4948
 2287 013a 07       		.uleb128 0x7
 2288 013b 70010000 		.4byte	.LASF20
 2289 013f 01       		.byte	0x1
 2290 0140 31       		.byte	0x31
 2291 0141 A4000000 		.4byte	0xa4
 2292 0145 03       		.uleb128 0x3
 2293 0146 91       		.byte	0x91
 2294 0147 A859     		.sleb128 -4952
 2295 0149 09       		.uleb128 0x9
 2296 014a 6900     		.ascii	"i\000"
 2297 014c 01       		.byte	0x1
 2298 014d 33       		.byte	0x33
ARM GAS  C:\Users\lger522\AppData\Local\Temp\ccu7wruq.s 			page 48


 2299 014e 68000000 		.4byte	0x68
 2300 0152 02       		.uleb128 0x2
 2301 0153 91       		.byte	0x91
 2302 0154 74       		.sleb128 -12
 2303 0155 0D       		.uleb128 0xd
 2304 0156 6D020000 		.4byte	.LASF21
 2305 015a 01       		.byte	0x1
 2306 015b 36       		.byte	0x36
 2307 015c 95020000 		.4byte	0x295
 2308 0160 03       		.uleb128 0x3
 2309 0161 91       		.byte	0x91
 2310 0162 D86D     		.sleb128 -2344
 2311 0164 0D       		.uleb128 0xd
 2312 0165 48010000 		.4byte	.LASF22
 2313 0169 01       		.byte	0x1
 2314 016a 37       		.byte	0x37
 2315 016b 68000000 		.4byte	0x68
 2316 016f 02       		.uleb128 0x2
 2317 0170 91       		.byte	0x91
 2318 0171 70       		.sleb128 -16
 2319 0172 0D       		.uleb128 0xd
 2320 0173 39020000 		.4byte	.LASF23
 2321 0177 01       		.byte	0x1
 2322 0178 37       		.byte	0x37
 2323 0179 68000000 		.4byte	0x68
 2324 017d 02       		.uleb128 0x2
 2325 017e 91       		.byte	0x91
 2326 017f 6C       		.sleb128 -20
 2327 0180 0D       		.uleb128 0xd
 2328 0181 4E010000 		.4byte	.LASF24
 2329 0185 01       		.byte	0x1
 2330 0186 38       		.byte	0x38
 2331 0187 AC020000 		.4byte	0x2ac
 2332 018b 03       		.uleb128 0x3
 2333 018c 91       		.byte	0x91
 2334 018d B86B     		.sleb128 -2632
 2335 018f 0D       		.uleb128 0xd
 2336 0190 65010000 		.4byte	.LASF25
 2337 0194 01       		.byte	0x1
 2338 0195 40       		.byte	0x40
 2339 0196 C2020000 		.4byte	0x2c2
 2340 019a 03       		.uleb128 0x3
 2341 019b 91       		.byte	0x91
 2342 019c C462     		.sleb128 -3772
 2343 019e 0D       		.uleb128 0xd
 2344 019f 01010000 		.4byte	.LASF26
 2345 01a3 01       		.byte	0x1
 2346 01a4 45       		.byte	0x45
 2347 01a5 C2020000 		.4byte	0x2c2
 2348 01a9 03       		.uleb128 0x3
 2349 01aa 91       		.byte	0x91
 2350 01ab D059     		.sleb128 -4912
 2351 01ad 0D       		.uleb128 0xd
 2352 01ae 3F010000 		.4byte	.LASF27
 2353 01b2 01       		.byte	0x1
 2354 01b3 53       		.byte	0x53
 2355 01b4 68000000 		.4byte	0x68
ARM GAS  C:\Users\lger522\AppData\Local\Temp\ccu7wruq.s 			page 49


 2356 01b8 02       		.uleb128 0x2
 2357 01b9 91       		.byte	0x91
 2358 01ba 4C       		.sleb128 -52
 2359 01bb 0D       		.uleb128 0xd
 2360 01bc 18010000 		.4byte	.LASF28
 2361 01c0 01       		.byte	0x1
 2362 01c1 55       		.byte	0x55
 2363 01c2 68000000 		.4byte	0x68
 2364 01c6 02       		.uleb128 0x2
 2365 01c7 91       		.byte	0x91
 2366 01c8 60       		.sleb128 -32
 2367 01c9 0D       		.uleb128 0xd
 2368 01ca 00000000 		.4byte	.LASF29
 2369 01ce 01       		.byte	0x1
 2370 01cf 56       		.byte	0x56
 2371 01d0 68000000 		.4byte	0x68
 2372 01d4 02       		.uleb128 0x2
 2373 01d5 91       		.byte	0x91
 2374 01d6 5C       		.sleb128 -36
 2375 01d7 0D       		.uleb128 0xd
 2376 01d8 B3000000 		.4byte	.LASF30
 2377 01dc 01       		.byte	0x1
 2378 01dd A2       		.byte	0xa2
 2379 01de 68000000 		.4byte	0x68
 2380 01e2 02       		.uleb128 0x2
 2381 01e3 91       		.byte	0x91
 2382 01e4 54       		.sleb128 -44
 2383 01e5 0D       		.uleb128 0xd
 2384 01e6 B9000000 		.4byte	.LASF31
 2385 01ea 01       		.byte	0x1
 2386 01eb A3       		.byte	0xa3
 2387 01ec 68000000 		.4byte	0x68
 2388 01f0 02       		.uleb128 0x2
 2389 01f1 91       		.byte	0x91
 2390 01f2 50       		.sleb128 -48
 2391 01f3 0E       		.uleb128 0xe
 2392 01f4 3E000000 		.4byte	.LBB3
 2393 01f8 9C000000 		.4byte	.LBE3-.LBB3
 2394 01fc 23020000 		.4byte	0x223
 2395 0200 09       		.uleb128 0x9
 2396 0201 6900     		.ascii	"i\000"
 2397 0203 01       		.byte	0x1
 2398 0204 3B       		.byte	0x3b
 2399 0205 68000000 		.4byte	0x68
 2400 0209 02       		.uleb128 0x2
 2401 020a 91       		.byte	0x91
 2402 020b 68       		.sleb128 -24
 2403 020c 08       		.uleb128 0x8
 2404 020d 48000000 		.4byte	.LBB4
 2405 0211 7A000000 		.4byte	.LBE4-.LBB4
 2406 0215 09       		.uleb128 0x9
 2407 0216 6A00     		.ascii	"j\000"
 2408 0218 01       		.byte	0x1
 2409 0219 3C       		.byte	0x3c
 2410 021a 68000000 		.4byte	0x68
 2411 021e 02       		.uleb128 0x2
 2412 021f 91       		.byte	0x91
ARM GAS  C:\Users\lger522\AppData\Local\Temp\ccu7wruq.s 			page 50


 2413 0220 64       		.sleb128 -28
 2414 0221 00       		.byte	0
 2415 0222 00       		.byte	0
 2416 0223 0E       		.uleb128 0xe
 2417 0224 6A010000 		.4byte	.LBB5
 2418 0228 32040000 		.4byte	.LBE5-.LBB5
 2419 022c 7C020000 		.4byte	0x27c
 2420 0230 0D       		.uleb128 0xd
 2421 0231 AD020000 		.4byte	.LASF32
 2422 0235 01       		.byte	0x1
 2423 0236 64       		.byte	0x64
 2424 0237 D8020000 		.4byte	0x2d8
 2425 023b 03       		.uleb128 0x3
 2426 023c 91       		.byte	0x91
 2427 023d B059     		.sleb128 -4944
 2428 023f 08       		.uleb128 0x8
 2429 0240 92020000 		.4byte	.LBB6
 2430 0244 C6020000 		.4byte	.LBE6-.LBB6
 2431 0248 09       		.uleb128 0x9
 2432 0249 6E00     		.ascii	"n\000"
 2433 024b 01       		.byte	0x1
 2434 024c 73       		.byte	0x73
 2435 024d 68000000 		.4byte	0x68
 2436 0251 02       		.uleb128 0x2
 2437 0252 91       		.byte	0x91
 2438 0253 58       		.sleb128 -40
 2439 0254 08       		.uleb128 0x8
 2440 0255 A8020000 		.4byte	.LBB7
 2441 0259 8A020000 		.4byte	.LBE7-.LBB7
 2442 025d 0D       		.uleb128 0xd
 2443 025e 6B010000 		.4byte	.LASF33
 2444 0262 01       		.byte	0x1
 2445 0263 74       		.byte	0x74
 2446 0264 68000000 		.4byte	0x68
 2447 0268 02       		.uleb128 0x2
 2448 0269 91       		.byte	0x91
 2449 026a 48       		.sleb128 -56
 2450 026b 0D       		.uleb128 0xd
 2451 026c 56010000 		.4byte	.LASF34
 2452 0270 01       		.byte	0x1
 2453 0271 75       		.byte	0x75
 2454 0272 68000000 		.4byte	0x68
 2455 0276 02       		.uleb128 0x2
 2456 0277 91       		.byte	0x91
 2457 0278 44       		.sleb128 -60
 2458 0279 00       		.byte	0
 2459 027a 00       		.byte	0
 2460 027b 00       		.byte	0
 2461 027c 08       		.uleb128 0x8
 2462 027d 3C060000 		.4byte	.LBB8
 2463 0281 10010000 		.4byte	.LBE8-.LBB8
 2464 0285 0D       		.uleb128 0xd
 2465 0286 CF020000 		.4byte	.LASF35
 2466 028a 01       		.byte	0x1
 2467 028b AB       		.byte	0xab
 2468 028c 68000000 		.4byte	0x68
 2469 0290 02       		.uleb128 0x2
ARM GAS  C:\Users\lger522\AppData\Local\Temp\ccu7wruq.s 			page 51


 2470 0291 91       		.byte	0x91
 2471 0292 40       		.sleb128 -64
 2472 0293 00       		.byte	0
 2473 0294 00       		.byte	0
 2474 0295 0A       		.uleb128 0xa
 2475 0296 68000000 		.4byte	0x68
 2476 029a AC020000 		.4byte	0x2ac
 2477 029e 0F       		.uleb128 0xf
 2478 029f 9D000000 		.4byte	0x9d
 2479 02a3 1C01     		.2byte	0x11c
 2480 02a5 0B       		.uleb128 0xb
 2481 02a6 9D000000 		.4byte	0x9d
 2482 02aa 01       		.byte	0x1
 2483 02ab 00       		.byte	0
 2484 02ac 0A       		.uleb128 0xa
 2485 02ad 2C000000 		.4byte	0x2c
 2486 02b1 C2020000 		.4byte	0x2c2
 2487 02b5 0B       		.uleb128 0xb
 2488 02b6 9D000000 		.4byte	0x9d
 2489 02ba 0E       		.byte	0xe
 2490 02bb 0B       		.uleb128 0xb
 2491 02bc 9D000000 		.4byte	0x9d
 2492 02c0 12       		.byte	0x12
 2493 02c1 00       		.byte	0
 2494 02c2 0A       		.uleb128 0xa
 2495 02c3 68000000 		.4byte	0x68
 2496 02c7 D8020000 		.4byte	0x2d8
 2497 02cb 0B       		.uleb128 0xb
 2498 02cc 9D000000 		.4byte	0x9d
 2499 02d0 0E       		.byte	0xe
 2500 02d1 0B       		.uleb128 0xb
 2501 02d2 9D000000 		.4byte	0x9d
 2502 02d6 12       		.byte	0x12
 2503 02d7 00       		.byte	0
 2504 02d8 0A       		.uleb128 0xa
 2505 02d9 68000000 		.4byte	0x68
 2506 02dd EE020000 		.4byte	0x2ee
 2507 02e1 0B       		.uleb128 0xb
 2508 02e2 9D000000 		.4byte	0x9d
 2509 02e6 03       		.byte	0x3
 2510 02e7 0B       		.uleb128 0xb
 2511 02e8 9D000000 		.4byte	0x9d
 2512 02ec 01       		.byte	0x1
 2513 02ed 00       		.byte	0
 2514 02ee 10       		.uleb128 0x10
 2515 02ef 8F020000 		.4byte	.LASF36
 2516 02f3 01       		.byte	0x1
 2517 02f4 C1       		.byte	0xc1
 2518 02f5 00000000 		.4byte	.LFB66
 2519 02f9 F0050000 		.4byte	.LFE66-.LFB66
 2520 02fd 01       		.uleb128 0x1
 2521 02fe 9C       		.byte	0x9c
 2522 02ff F6030000 		.4byte	0x3f6
 2523 0303 07       		.uleb128 0x7
 2524 0304 E9020000 		.4byte	.LASF16
 2525 0308 01       		.byte	0x1
 2526 0309 C1       		.byte	0xc1
ARM GAS  C:\Users\lger522\AppData\Local\Temp\ccu7wruq.s 			page 52


 2527 030a A4000000 		.4byte	0xa4
 2528 030e 03       		.uleb128 0x3
 2529 030f 91       		.byte	0x91
 2530 0310 EC77     		.sleb128 -1044
 2531 0312 07       		.uleb128 0x7
 2532 0313 09010000 		.4byte	.LASF17
 2533 0317 01       		.byte	0x1
 2534 0318 C1       		.byte	0xc1
 2535 0319 A4000000 		.4byte	0xa4
 2536 031d 03       		.uleb128 0x3
 2537 031e 91       		.byte	0x91
 2538 031f E877     		.sleb128 -1048
 2539 0321 07       		.uleb128 0x7
 2540 0322 BD020000 		.4byte	.LASF18
 2541 0326 01       		.byte	0x1
 2542 0327 C1       		.byte	0xc1
 2543 0328 10010000 		.4byte	0x110
 2544 032c 03       		.uleb128 0x3
 2545 032d 91       		.byte	0x91
 2546 032e E477     		.sleb128 -1052
 2547 0330 0D       		.uleb128 0xd
 2548 0331 43030000 		.4byte	.LASF37
 2549 0335 01       		.byte	0x1
 2550 0336 C2       		.byte	0xc2
 2551 0337 F6030000 		.4byte	0x3f6
 2552 033b 03       		.uleb128 0x3
 2553 033c 91       		.byte	0x91
 2554 033d F477     		.sleb128 -1036
 2555 033f 0D       		.uleb128 0xd
 2556 0340 A7020000 		.4byte	.LASF38
 2557 0344 01       		.byte	0x1
 2558 0345 C3       		.byte	0xc3
 2559 0346 68000000 		.4byte	0x68
 2560 034a 02       		.uleb128 0x2
 2561 034b 91       		.byte	0x91
 2562 034c 74       		.sleb128 -12
 2563 034d 0E       		.uleb128 0xe
 2564 034e 1E000000 		.4byte	.LBB9
 2565 0352 6E000000 		.4byte	.LBE9-.LBB9
 2566 0356 67030000 		.4byte	0x367
 2567 035a 09       		.uleb128 0x9
 2568 035b 6900     		.ascii	"i\000"
 2569 035d 01       		.byte	0x1
 2570 035e C6       		.byte	0xc6
 2571 035f 68000000 		.4byte	0x68
 2572 0363 02       		.uleb128 0x2
 2573 0364 91       		.byte	0x91
 2574 0365 70       		.sleb128 -16
 2575 0366 00       		.byte	0
 2576 0367 0E       		.uleb128 0xe
 2577 0368 8C000000 		.4byte	.LBB10
 2578 036c 52000000 		.4byte	.LBE10-.LBB10
 2579 0370 81030000 		.4byte	0x381
 2580 0374 09       		.uleb128 0x9
 2581 0375 6900     		.ascii	"i\000"
 2582 0377 01       		.byte	0x1
 2583 0378 D0       		.byte	0xd0
ARM GAS  C:\Users\lger522\AppData\Local\Temp\ccu7wruq.s 			page 53


 2584 0379 68000000 		.4byte	0x68
 2585 037d 02       		.uleb128 0x2
 2586 037e 91       		.byte	0x91
 2587 037f 6C       		.sleb128 -20
 2588 0380 00       		.byte	0
 2589 0381 08       		.uleb128 0x8
 2590 0382 DE000000 		.4byte	.LBB11
 2591 0386 F8040000 		.4byte	.LBE11-.LBB11
 2592 038a 09       		.uleb128 0x9
 2593 038b 6900     		.ascii	"i\000"
 2594 038d 01       		.byte	0x1
 2595 038e D5       		.byte	0xd5
 2596 038f 68000000 		.4byte	0x68
 2597 0393 02       		.uleb128 0x2
 2598 0394 91       		.byte	0x91
 2599 0395 68       		.sleb128 -24
 2600 0396 08       		.uleb128 0x8
 2601 0397 E6000000 		.4byte	.LBB12
 2602 039b DA040000 		.4byte	.LBE12-.LBB12
 2603 039f 0D       		.uleb128 0xd
 2604 03a0 0C000000 		.4byte	.LASF39
 2605 03a4 01       		.byte	0x1
 2606 03a5 D7       		.byte	0xd7
 2607 03a6 2C000000 		.4byte	0x2c
 2608 03aa 02       		.uleb128 0x2
 2609 03ab 91       		.byte	0x91
 2610 03ac 5F       		.sleb128 -33
 2611 03ad 0D       		.uleb128 0xd
 2612 03ae 86020000 		.4byte	.LASF40
 2613 03b2 01       		.byte	0x1
 2614 03b3 D8       		.byte	0xd8
 2615 03b4 2C000000 		.4byte	0x2c
 2616 03b8 02       		.uleb128 0x2
 2617 03b9 91       		.byte	0x91
 2618 03ba 5E       		.sleb128 -34
 2619 03bb 0D       		.uleb128 0xd
 2620 03bc 37030000 		.4byte	.LASF41
 2621 03c0 01       		.byte	0x1
 2622 03c1 D9       		.byte	0xd9
 2623 03c2 2C000000 		.4byte	0x2c
 2624 03c6 02       		.uleb128 0x2
 2625 03c7 91       		.byte	0x91
 2626 03c8 67       		.sleb128 -25
 2627 03c9 0D       		.uleb128 0xd
 2628 03ca 58020000 		.4byte	.LASF42
 2629 03ce 01       		.byte	0x1
 2630 03cf DA       		.byte	0xda
 2631 03d0 2C000000 		.4byte	0x2c
 2632 03d4 02       		.uleb128 0x2
 2633 03d5 91       		.byte	0x91
 2634 03d6 66       		.sleb128 -26
 2635 03d7 0D       		.uleb128 0xd
 2636 03d8 5B010000 		.4byte	.LASF43
 2637 03dc 01       		.byte	0x1
 2638 03dd DC       		.byte	0xdc
 2639 03de 2C000000 		.4byte	0x2c
 2640 03e2 02       		.uleb128 0x2
ARM GAS  C:\Users\lger522\AppData\Local\Temp\ccu7wruq.s 			page 54


 2641 03e3 91       		.byte	0x91
 2642 03e4 65       		.sleb128 -27
 2643 03e5 0D       		.uleb128 0xd
 2644 03e6 13030000 		.4byte	.LASF44
 2645 03ea 01       		.byte	0x1
 2646 03eb F1       		.byte	0xf1
 2647 03ec 68000000 		.4byte	0x68
 2648 03f0 02       		.uleb128 0x2
 2649 03f1 91       		.byte	0x91
 2650 03f2 60       		.sleb128 -32
 2651 03f3 00       		.byte	0
 2652 03f4 00       		.byte	0
 2653 03f5 00       		.byte	0
 2654 03f6 0A       		.uleb128 0xa
 2655 03f7 2C000000 		.4byte	0x2c
 2656 03fb 0D040000 		.4byte	0x40d
 2657 03ff 0F       		.uleb128 0xf
 2658 0400 9D000000 		.4byte	0x9d
 2659 0404 F301     		.2byte	0x1f3
 2660 0406 0B       		.uleb128 0xb
 2661 0407 9D000000 		.4byte	0x9d
 2662 040b 01       		.byte	0x1
 2663 040c 00       		.byte	0
 2664 040d 11       		.uleb128 0x11
 2665 040e 7F010000 		.4byte	.LASF45
 2666 0412 04       		.byte	0x4
 2667 0413 1207     		.2byte	0x712
 2668 0415 19040000 		.4byte	0x419
 2669 0419 12       		.uleb128 0x12
 2670 041a 76000000 		.4byte	0x76
 2671 041e 13       		.uleb128 0x13
 2672 041f 6D617000 		.ascii	"map\000"
 2673 0423 05       		.byte	0x5
 2674 0424 0D       		.byte	0xd
 2675 0425 AC020000 		.4byte	0x2ac
 2676 0429 05       		.uleb128 0x5
 2677 042a 03       		.byte	0x3
 2678 042b 00000000 		.4byte	map
 2679 042f 14       		.uleb128 0x14
 2680 0430 DC000000 		.4byte	.LASF46
 2681 0434 05       		.byte	0x5
 2682 0435 1F       		.byte	0x1f
 2683 0436 00010000 		.4byte	0x100
 2684 043a 05       		.uleb128 0x5
 2685 043b 03       		.byte	0x3
 2686 043c 00000000 		.4byte	start_pos
 2687 0440 0A       		.uleb128 0xa
 2688 0441 2C000000 		.4byte	0x2c
 2689 0445 56040000 		.4byte	0x456
 2690 0449 0B       		.uleb128 0xb
 2691 044a 9D000000 		.4byte	0x9d
 2692 044e 04       		.byte	0x4
 2693 044f 0B       		.uleb128 0xb
 2694 0450 9D000000 		.4byte	0x9d
 2695 0454 01       		.byte	0x1
 2696 0455 00       		.byte	0
 2697 0456 14       		.uleb128 0x14
ARM GAS  C:\Users\lger522\AppData\Local\Temp\ccu7wruq.s 			page 55


 2698 0457 02020000 		.4byte	.LASF47
 2699 045b 05       		.byte	0x5
 2700 045c 21       		.byte	0x21
 2701 045d 40040000 		.4byte	0x440
 2702 0461 05       		.uleb128 0x5
 2703 0462 03       		.byte	0x3
 2704 0463 00000000 		.4byte	food_list
 2705 0467 14       		.uleb128 0x14
 2706 0468 E6000000 		.4byte	.LASF48
 2707 046c 01       		.byte	0x1
 2708 046d 17       		.byte	0x17
 2709 046e 68000000 		.4byte	0x68
 2710 0472 05       		.uleb128 0x5
 2711 0473 03       		.byte	0x3
 2712 0474 00000000 		.4byte	instructionCounter
 2713 0478 14       		.uleb128 0x14
 2714 0479 A3000000 		.4byte	.LASF49
 2715 047d 01       		.byte	0x1
 2716 047e 18       		.byte	0x18
 2717 047f 68000000 		.4byte	0x68
 2718 0483 05       		.uleb128 0x5
 2719 0484 03       		.byte	0x3
 2720 0485 00000000 		.4byte	distanceCounter
 2721 0489 14       		.uleb128 0x14
 2722 048a DA020000 		.4byte	.LASF50
 2723 048e 01       		.byte	0x1
 2724 048f 19       		.byte	0x19
 2725 0490 68000000 		.4byte	0x68
 2726 0494 05       		.uleb128 0x5
 2727 0495 03       		.byte	0x3
 2728 0496 00000000 		.4byte	squaresCounter
 2729 049a 14       		.uleb128 0x14
 2730 049b 3E020000 		.4byte	.LASF51
 2731 049f 01       		.byte	0x1
 2732 04a0 1A       		.byte	0x1a
 2733 04a1 68000000 		.4byte	0x68
 2734 04a5 05       		.uleb128 0x5
 2735 04a6 03       		.byte	0x3
 2736 04a7 00000000 		.4byte	robotDirection
 2737 04ab 14       		.uleb128 0x14
 2738 04ac 23020000 		.4byte	.LASF52
 2739 04b0 01       		.byte	0x1
 2740 04b1 1B       		.byte	0x1b
 2741 04b2 68000000 		.4byte	0x68
 2742 04b6 05       		.uleb128 0x5
 2743 04b7 03       		.byte	0x3
 2744 04b8 00000000 		.4byte	firstValidInstruction
 2745 04bc 0A       		.uleb128 0xa
 2746 04bd 68000000 		.4byte	0x68
 2747 04c1 CC040000 		.4byte	0x4cc
 2748 04c5 0B       		.uleb128 0xb
 2749 04c6 9D000000 		.4byte	0x9d
 2750 04ca 01       		.byte	0x1
 2751 04cb 00       		.byte	0
 2752 04cc 14       		.uleb128 0x14
 2753 04cd 24010000 		.4byte	.LASF53
 2754 04d1 01       		.byte	0x1
ARM GAS  C:\Users\lger522\AppData\Local\Temp\ccu7wruq.s 			page 56


 2755 04d2 1D       		.byte	0x1d
 2756 04d3 BC040000 		.4byte	0x4bc
 2757 04d7 05       		.uleb128 0x5
 2758 04d8 03       		.byte	0x3
 2759 04d9 00000000 		.4byte	startPos
 2760 04dd 00       		.byte	0
 2761              		.section	.debug_abbrev,"",%progbits
 2762              	.Ldebug_abbrev0:
 2763 0000 01       		.uleb128 0x1
 2764 0001 11       		.uleb128 0x11
 2765 0002 01       		.byte	0x1
 2766 0003 25       		.uleb128 0x25
 2767 0004 0E       		.uleb128 0xe
 2768 0005 13       		.uleb128 0x13
 2769 0006 0B       		.uleb128 0xb
 2770 0007 03       		.uleb128 0x3
 2771 0008 0E       		.uleb128 0xe
 2772 0009 1B       		.uleb128 0x1b
 2773 000a 0E       		.uleb128 0xe
 2774 000b 55       		.uleb128 0x55
 2775 000c 17       		.uleb128 0x17
 2776 000d 11       		.uleb128 0x11
 2777 000e 01       		.uleb128 0x1
 2778 000f 10       		.uleb128 0x10
 2779 0010 17       		.uleb128 0x17
 2780 0011 00       		.byte	0
 2781 0012 00       		.byte	0
 2782 0013 02       		.uleb128 0x2
 2783 0014 24       		.uleb128 0x24
 2784 0015 00       		.byte	0
 2785 0016 0B       		.uleb128 0xb
 2786 0017 0B       		.uleb128 0xb
 2787 0018 3E       		.uleb128 0x3e
 2788 0019 0B       		.uleb128 0xb
 2789 001a 03       		.uleb128 0x3
 2790 001b 0E       		.uleb128 0xe
 2791 001c 00       		.byte	0
 2792 001d 00       		.byte	0
 2793 001e 03       		.uleb128 0x3
 2794 001f 16       		.uleb128 0x16
 2795 0020 00       		.byte	0
 2796 0021 03       		.uleb128 0x3
 2797 0022 0E       		.uleb128 0xe
 2798 0023 3A       		.uleb128 0x3a
 2799 0024 0B       		.uleb128 0xb
 2800 0025 3B       		.uleb128 0x3b
 2801 0026 0B       		.uleb128 0xb
 2802 0027 49       		.uleb128 0x49
 2803 0028 13       		.uleb128 0x13
 2804 0029 00       		.byte	0
 2805 002a 00       		.byte	0
 2806 002b 04       		.uleb128 0x4
 2807 002c 24       		.uleb128 0x24
 2808 002d 00       		.byte	0
 2809 002e 0B       		.uleb128 0xb
 2810 002f 0B       		.uleb128 0xb
 2811 0030 3E       		.uleb128 0x3e
ARM GAS  C:\Users\lger522\AppData\Local\Temp\ccu7wruq.s 			page 57


 2812 0031 0B       		.uleb128 0xb
 2813 0032 03       		.uleb128 0x3
 2814 0033 08       		.uleb128 0x8
 2815 0034 00       		.byte	0
 2816 0035 00       		.byte	0
 2817 0036 05       		.uleb128 0x5
 2818 0037 0F       		.uleb128 0xf
 2819 0038 00       		.byte	0
 2820 0039 0B       		.uleb128 0xb
 2821 003a 0B       		.uleb128 0xb
 2822 003b 49       		.uleb128 0x49
 2823 003c 13       		.uleb128 0x13
 2824 003d 00       		.byte	0
 2825 003e 00       		.byte	0
 2826 003f 06       		.uleb128 0x6
 2827 0040 2E       		.uleb128 0x2e
 2828 0041 01       		.byte	0x1
 2829 0042 3F       		.uleb128 0x3f
 2830 0043 19       		.uleb128 0x19
 2831 0044 03       		.uleb128 0x3
 2832 0045 0E       		.uleb128 0xe
 2833 0046 3A       		.uleb128 0x3a
 2834 0047 0B       		.uleb128 0xb
 2835 0048 3B       		.uleb128 0x3b
 2836 0049 0B       		.uleb128 0xb
 2837 004a 27       		.uleb128 0x27
 2838 004b 19       		.uleb128 0x19
 2839 004c 11       		.uleb128 0x11
 2840 004d 01       		.uleb128 0x1
 2841 004e 12       		.uleb128 0x12
 2842 004f 06       		.uleb128 0x6
 2843 0050 40       		.uleb128 0x40
 2844 0051 18       		.uleb128 0x18
 2845 0052 9642     		.uleb128 0x2116
 2846 0054 19       		.uleb128 0x19
 2847 0055 01       		.uleb128 0x1
 2848 0056 13       		.uleb128 0x13
 2849 0057 00       		.byte	0
 2850 0058 00       		.byte	0
 2851 0059 07       		.uleb128 0x7
 2852 005a 05       		.uleb128 0x5
 2853 005b 00       		.byte	0
 2854 005c 03       		.uleb128 0x3
 2855 005d 0E       		.uleb128 0xe
 2856 005e 3A       		.uleb128 0x3a
 2857 005f 0B       		.uleb128 0xb
 2858 0060 3B       		.uleb128 0x3b
 2859 0061 0B       		.uleb128 0xb
 2860 0062 49       		.uleb128 0x49
 2861 0063 13       		.uleb128 0x13
 2862 0064 02       		.uleb128 0x2
 2863 0065 18       		.uleb128 0x18
 2864 0066 00       		.byte	0
 2865 0067 00       		.byte	0
 2866 0068 08       		.uleb128 0x8
 2867 0069 0B       		.uleb128 0xb
 2868 006a 01       		.byte	0x1
ARM GAS  C:\Users\lger522\AppData\Local\Temp\ccu7wruq.s 			page 58


 2869 006b 11       		.uleb128 0x11
 2870 006c 01       		.uleb128 0x1
 2871 006d 12       		.uleb128 0x12
 2872 006e 06       		.uleb128 0x6
 2873 006f 00       		.byte	0
 2874 0070 00       		.byte	0
 2875 0071 09       		.uleb128 0x9
 2876 0072 34       		.uleb128 0x34
 2877 0073 00       		.byte	0
 2878 0074 03       		.uleb128 0x3
 2879 0075 08       		.uleb128 0x8
 2880 0076 3A       		.uleb128 0x3a
 2881 0077 0B       		.uleb128 0xb
 2882 0078 3B       		.uleb128 0x3b
 2883 0079 0B       		.uleb128 0xb
 2884 007a 49       		.uleb128 0x49
 2885 007b 13       		.uleb128 0x13
 2886 007c 02       		.uleb128 0x2
 2887 007d 18       		.uleb128 0x18
 2888 007e 00       		.byte	0
 2889 007f 00       		.byte	0
 2890 0080 0A       		.uleb128 0xa
 2891 0081 01       		.uleb128 0x1
 2892 0082 01       		.byte	0x1
 2893 0083 49       		.uleb128 0x49
 2894 0084 13       		.uleb128 0x13
 2895 0085 01       		.uleb128 0x1
 2896 0086 13       		.uleb128 0x13
 2897 0087 00       		.byte	0
 2898 0088 00       		.byte	0
 2899 0089 0B       		.uleb128 0xb
 2900 008a 21       		.uleb128 0x21
 2901 008b 00       		.byte	0
 2902 008c 49       		.uleb128 0x49
 2903 008d 13       		.uleb128 0x13
 2904 008e 2F       		.uleb128 0x2f
 2905 008f 0B       		.uleb128 0xb
 2906 0090 00       		.byte	0
 2907 0091 00       		.byte	0
 2908 0092 0C       		.uleb128 0xc
 2909 0093 2E       		.uleb128 0x2e
 2910 0094 01       		.byte	0x1
 2911 0095 3F       		.uleb128 0x3f
 2912 0096 19       		.uleb128 0x19
 2913 0097 03       		.uleb128 0x3
 2914 0098 08       		.uleb128 0x8
 2915 0099 3A       		.uleb128 0x3a
 2916 009a 0B       		.uleb128 0xb
 2917 009b 3B       		.uleb128 0x3b
 2918 009c 0B       		.uleb128 0xb
 2919 009d 27       		.uleb128 0x27
 2920 009e 19       		.uleb128 0x19
 2921 009f 11       		.uleb128 0x11
 2922 00a0 01       		.uleb128 0x1
 2923 00a1 12       		.uleb128 0x12
 2924 00a2 06       		.uleb128 0x6
 2925 00a3 40       		.uleb128 0x40
ARM GAS  C:\Users\lger522\AppData\Local\Temp\ccu7wruq.s 			page 59


 2926 00a4 18       		.uleb128 0x18
 2927 00a5 9642     		.uleb128 0x2116
 2928 00a7 19       		.uleb128 0x19
 2929 00a8 01       		.uleb128 0x1
 2930 00a9 13       		.uleb128 0x13
 2931 00aa 00       		.byte	0
 2932 00ab 00       		.byte	0
 2933 00ac 0D       		.uleb128 0xd
 2934 00ad 34       		.uleb128 0x34
 2935 00ae 00       		.byte	0
 2936 00af 03       		.uleb128 0x3
 2937 00b0 0E       		.uleb128 0xe
 2938 00b1 3A       		.uleb128 0x3a
 2939 00b2 0B       		.uleb128 0xb
 2940 00b3 3B       		.uleb128 0x3b
 2941 00b4 0B       		.uleb128 0xb
 2942 00b5 49       		.uleb128 0x49
 2943 00b6 13       		.uleb128 0x13
 2944 00b7 02       		.uleb128 0x2
 2945 00b8 18       		.uleb128 0x18
 2946 00b9 00       		.byte	0
 2947 00ba 00       		.byte	0
 2948 00bb 0E       		.uleb128 0xe
 2949 00bc 0B       		.uleb128 0xb
 2950 00bd 01       		.byte	0x1
 2951 00be 11       		.uleb128 0x11
 2952 00bf 01       		.uleb128 0x1
 2953 00c0 12       		.uleb128 0x12
 2954 00c1 06       		.uleb128 0x6
 2955 00c2 01       		.uleb128 0x1
 2956 00c3 13       		.uleb128 0x13
 2957 00c4 00       		.byte	0
 2958 00c5 00       		.byte	0
 2959 00c6 0F       		.uleb128 0xf
 2960 00c7 21       		.uleb128 0x21
 2961 00c8 00       		.byte	0
 2962 00c9 49       		.uleb128 0x49
 2963 00ca 13       		.uleb128 0x13
 2964 00cb 2F       		.uleb128 0x2f
 2965 00cc 05       		.uleb128 0x5
 2966 00cd 00       		.byte	0
 2967 00ce 00       		.byte	0
 2968 00cf 10       		.uleb128 0x10
 2969 00d0 2E       		.uleb128 0x2e
 2970 00d1 01       		.byte	0x1
 2971 00d2 3F       		.uleb128 0x3f
 2972 00d3 19       		.uleb128 0x19
 2973 00d4 03       		.uleb128 0x3
 2974 00d5 0E       		.uleb128 0xe
 2975 00d6 3A       		.uleb128 0x3a
 2976 00d7 0B       		.uleb128 0xb
 2977 00d8 3B       		.uleb128 0x3b
 2978 00d9 0B       		.uleb128 0xb
 2979 00da 27       		.uleb128 0x27
 2980 00db 19       		.uleb128 0x19
 2981 00dc 11       		.uleb128 0x11
 2982 00dd 01       		.uleb128 0x1
ARM GAS  C:\Users\lger522\AppData\Local\Temp\ccu7wruq.s 			page 60


 2983 00de 12       		.uleb128 0x12
 2984 00df 06       		.uleb128 0x6
 2985 00e0 40       		.uleb128 0x40
 2986 00e1 18       		.uleb128 0x18
 2987 00e2 9742     		.uleb128 0x2117
 2988 00e4 19       		.uleb128 0x19
 2989 00e5 01       		.uleb128 0x1
 2990 00e6 13       		.uleb128 0x13
 2991 00e7 00       		.byte	0
 2992 00e8 00       		.byte	0
 2993 00e9 11       		.uleb128 0x11
 2994 00ea 34       		.uleb128 0x34
 2995 00eb 00       		.byte	0
 2996 00ec 03       		.uleb128 0x3
 2997 00ed 0E       		.uleb128 0xe
 2998 00ee 3A       		.uleb128 0x3a
 2999 00ef 0B       		.uleb128 0xb
 3000 00f0 3B       		.uleb128 0x3b
 3001 00f1 05       		.uleb128 0x5
 3002 00f2 49       		.uleb128 0x49
 3003 00f3 13       		.uleb128 0x13
 3004 00f4 3F       		.uleb128 0x3f
 3005 00f5 19       		.uleb128 0x19
 3006 00f6 3C       		.uleb128 0x3c
 3007 00f7 19       		.uleb128 0x19
 3008 00f8 00       		.byte	0
 3009 00f9 00       		.byte	0
 3010 00fa 12       		.uleb128 0x12
 3011 00fb 35       		.uleb128 0x35
 3012 00fc 00       		.byte	0
 3013 00fd 49       		.uleb128 0x49
 3014 00fe 13       		.uleb128 0x13
 3015 00ff 00       		.byte	0
 3016 0100 00       		.byte	0
 3017 0101 13       		.uleb128 0x13
 3018 0102 34       		.uleb128 0x34
 3019 0103 00       		.byte	0
 3020 0104 03       		.uleb128 0x3
 3021 0105 08       		.uleb128 0x8
 3022 0106 3A       		.uleb128 0x3a
 3023 0107 0B       		.uleb128 0xb
 3024 0108 3B       		.uleb128 0x3b
 3025 0109 0B       		.uleb128 0xb
 3026 010a 49       		.uleb128 0x49
 3027 010b 13       		.uleb128 0x13
 3028 010c 3F       		.uleb128 0x3f
 3029 010d 19       		.uleb128 0x19
 3030 010e 02       		.uleb128 0x2
 3031 010f 18       		.uleb128 0x18
 3032 0110 00       		.byte	0
 3033 0111 00       		.byte	0
 3034 0112 14       		.uleb128 0x14
 3035 0113 34       		.uleb128 0x34
 3036 0114 00       		.byte	0
 3037 0115 03       		.uleb128 0x3
 3038 0116 0E       		.uleb128 0xe
 3039 0117 3A       		.uleb128 0x3a
ARM GAS  C:\Users\lger522\AppData\Local\Temp\ccu7wruq.s 			page 61


 3040 0118 0B       		.uleb128 0xb
 3041 0119 3B       		.uleb128 0x3b
 3042 011a 0B       		.uleb128 0xb
 3043 011b 49       		.uleb128 0x49
 3044 011c 13       		.uleb128 0x13
 3045 011d 3F       		.uleb128 0x3f
 3046 011e 19       		.uleb128 0x19
 3047 011f 02       		.uleb128 0x2
 3048 0120 18       		.uleb128 0x18
 3049 0121 00       		.byte	0
 3050 0122 00       		.byte	0
 3051 0123 00       		.byte	0
 3052              		.section	.debug_aranges,"",%progbits
 3053 0000 2C000000 		.4byte	0x2c
 3054 0004 0200     		.2byte	0x2
 3055 0006 00000000 		.4byte	.Ldebug_info0
 3056 000a 04       		.byte	0x4
 3057 000b 00       		.byte	0
 3058 000c 0000     		.2byte	0
 3059 000e 0000     		.2byte	0
 3060 0010 00000000 		.4byte	.LFB64
 3061 0014 8C000000 		.4byte	.LFE64-.LFB64
 3062 0018 00000000 		.4byte	.LFB65
 3063 001c 88070000 		.4byte	.LFE65-.LFB65
 3064 0020 00000000 		.4byte	.LFB66
 3065 0024 F0050000 		.4byte	.LFE66-.LFB66
 3066 0028 00000000 		.4byte	0
 3067 002c 00000000 		.4byte	0
 3068              		.section	.debug_ranges,"",%progbits
 3069              	.Ldebug_ranges0:
 3070 0000 00000000 		.4byte	.LFB64
 3071 0004 8C000000 		.4byte	.LFE64
 3072 0008 00000000 		.4byte	.LFB65
 3073 000c 88070000 		.4byte	.LFE65
 3074 0010 00000000 		.4byte	.LFB66
 3075 0014 F0050000 		.4byte	.LFE66
 3076 0018 00000000 		.4byte	0
 3077 001c 00000000 		.4byte	0
 3078              		.section	.debug_line,"",%progbits
 3079              	.Ldebug_line0:
 3080 0000 2B030000 		.section	.debug_str,"MS",%progbits,1
 3080      02004C01 
 3080      00000201 
 3080      FB0E0D00 
 3080      01010101 
 3081              	.LASF29:
 3082 0000 63757272 		.ascii	"current_col\000"
 3082      656E745F 
 3082      636F6C00 
 3083              	.LASF39:
 3084 000c 73746172 		.ascii	"startRow\000"
 3084      74526F77 
 3084      00
 3085              	.LASF54:
 3086 0015 474E5520 		.ascii	"GNU C11 5.4.1 20160609 (release) [ARM/embedded-5-br"
 3086      43313120 
 3086      352E342E 
ARM GAS  C:\Users\lger522\AppData\Local\Temp\ccu7wruq.s 			page 62


 3086      31203230 
 3086      31363036 
 3087 0048 616E6368 		.ascii	"anch revision 237715] -mcpu=cortex-m3 -mthumb -g -O"
 3087      20726576 
 3087      6973696F 
 3087      6E203233 
 3087      37373135 
 3088 007b 30202D66 		.ascii	"0 -ffunction-sections -ffat-lto-objects\000"
 3088      66756E63 
 3088      74696F6E 
 3088      2D736563 
 3088      74696F6E 
 3089              	.LASF49:
 3090 00a3 64697374 		.ascii	"distanceCounter\000"
 3090      616E6365 
 3090      436F756E 
 3090      74657200 
 3091              	.LASF30:
 3092 00b3 66706F73 		.ascii	"fpos1\000"
 3092      3100
 3093              	.LASF31:
 3094 00b9 66706F73 		.ascii	"fpos2\000"
 3094      3200
 3095              	.LASF9:
 3096 00bf 5F5F696E 		.ascii	"__int32_t\000"
 3096      7433325F 
 3096      7400
 3097              	.LASF3:
 3098 00c9 73686F72 		.ascii	"short unsigned int\000"
 3098      7420756E 
 3098      7369676E 
 3098      65642069 
 3098      6E7400
 3099              	.LASF46:
 3100 00dc 73746172 		.ascii	"start_pos\000"
 3100      745F706F 
 3100      7300
 3101              	.LASF48:
 3102 00e6 696E7374 		.ascii	"instructionCounter\000"
 3102      72756374 
 3102      696F6E43 
 3102      6F756E74 
 3102      657200
 3103              	.LASF10:
 3104 00f9 696E7433 		.ascii	"int32_t\000"
 3104      325F7400 
 3105              	.LASF26:
 3106 0101 70617265 		.ascii	"parents\000"
 3106      6E747300 
 3107              	.LASF17:
 3108 0109 64697374 		.ascii	"distance\000"
 3108      616E6365 
 3108      00
 3109              	.LASF11:
 3110 0112 666C6F61 		.ascii	"float\000"
 3110      7400
 3111              	.LASF28:
ARM GAS  C:\Users\lger522\AppData\Local\Temp\ccu7wruq.s 			page 63


 3112 0118 63757272 		.ascii	"current_row\000"
 3112      656E745F 
 3112      726F7700 
 3113              	.LASF53:
 3114 0124 73746172 		.ascii	"startPos\000"
 3114      74506F73 
 3114      00
 3115              	.LASF5:
 3116 012d 6C6F6E67 		.ascii	"long unsigned int\000"
 3116      20756E73 
 3116      69676E65 
 3116      6420696E 
 3116      7400
 3117              	.LASF27:
 3118 013f 66696E69 		.ascii	"finished\000"
 3118      73686564 
 3118      00
 3119              	.LASF22:
 3120 0148 66726F6E 		.ascii	"front\000"
 3120      7400
 3121              	.LASF24:
 3122 014e 76697369 		.ascii	"visited\000"
 3122      74656400 
 3123              	.LASF34:
 3124 0156 6E436F6C 		.ascii	"nCol\000"
 3124      00
 3125              	.LASF43:
 3126 015b 74726176 		.ascii	"travelDir\000"
 3126      656C4469 
 3126      7200
 3127              	.LASF25:
 3128 0165 73746570 		.ascii	"steps\000"
 3128      7300
 3129              	.LASF33:
 3130 016b 6E526F77 		.ascii	"nRow\000"
 3130      00
 3131              	.LASF20:
 3132 0170 74617267 		.ascii	"targetlocation\000"
 3132      65746C6F 
 3132      63617469 
 3132      6F6E00
 3133              	.LASF45:
 3134 017f 49544D5F 		.ascii	"ITM_RxBuffer\000"
 3134      52784275 
 3134      66666572 
 3134      00
 3135              	.LASF1:
 3136 018c 756E7369 		.ascii	"unsigned char\000"
 3136      676E6564 
 3136      20636861 
 3136      7200
 3137              	.LASF8:
 3138 019a 756E7369 		.ascii	"unsigned int\000"
 3138      676E6564 
 3138      20696E74 
 3138      00
 3139              	.LASF56:
ARM GAS  C:\Users\lger522\AppData\Local\Temp\ccu7wruq.s 			page 64


 3140 01a7 483A5C44 		.ascii	"H:\\Desktop\\Team 14\\team14\\301_lab_tasks\\psoc s"
 3140      65736B74 
 3140      6F705C54 
 3140      65616D20 
 3140      31345C74 
 3141 01d5 74756465 		.ascii	"tudent pack\\psoc_code_base\\CS301_Class.cydsn\000"
 3141      6E742070 
 3141      61636B5C 
 3141      70736F63 
 3141      5F636F64 
 3142              	.LASF47:
 3143 0202 666F6F64 		.ascii	"food_list\000"
 3143      5F6C6973 
 3143      7400
 3144              	.LASF7:
 3145 020c 6C6F6E67 		.ascii	"long long unsigned int\000"
 3145      206C6F6E 
 3145      6720756E 
 3145      7369676E 
 3145      65642069 
 3146              	.LASF52:
 3147 0223 66697273 		.ascii	"firstValidInstruction\000"
 3147      7456616C 
 3147      6964496E 
 3147      73747275 
 3147      6374696F 
 3148              	.LASF23:
 3149 0239 72656172 		.ascii	"rear\000"
 3149      00
 3150              	.LASF51:
 3151 023e 726F626F 		.ascii	"robotDirection\000"
 3151      74446972 
 3151      65637469 
 3151      6F6E00
 3152              	.LASF55:
 3153 024d 70617468 		.ascii	"pathfind.c\000"
 3153      66696E64 
 3153      2E6300
 3154              	.LASF42:
 3155 0258 6E657874 		.ascii	"nextMoveCol\000"
 3155      4D6F7665 
 3155      436F6C00 
 3156              	.LASF15:
 3157 0264 73697A65 		.ascii	"sizetype\000"
 3157      74797065 
 3157      00
 3158              	.LASF21:
 3159 026d 71756575 		.ascii	"queue\000"
 3159      6500
 3160              	.LASF6:
 3161 0273 6C6F6E67 		.ascii	"long long int\000"
 3161      206C6F6E 
 3161      6720696E 
 3161      7400
 3162              	.LASF13:
 3163 0281 63686172 		.ascii	"char\000"
 3163      00
ARM GAS  C:\Users\lger522\AppData\Local\Temp\ccu7wruq.s 			page 65


 3164              	.LASF40:
 3165 0286 73746172 		.ascii	"startCol\000"
 3165      74436F6C 
 3165      00
 3166              	.LASF36:
 3167 028f 67656E65 		.ascii	"generateInstructionList\000"
 3167      72617465 
 3167      496E7374 
 3167      72756374 
 3167      696F6E4C 
 3168              	.LASF38:
 3169 02a7 636F756E 		.ascii	"count\000"
 3169      7400
 3170              	.LASF32:
 3171 02ad 6E656967 		.ascii	"neighbour_array\000"
 3171      68626F75 
 3171      725F6172 
 3171      72617900 
 3172              	.LASF18:
 3173 02bd 73717561 		.ascii	"squares\000"
 3173      72657300 
 3174              	.LASF2:
 3175 02c5 73686F72 		.ascii	"short int\000"
 3175      7420696E 
 3175      7400
 3176              	.LASF35:
 3177 02cf 70617265 		.ascii	"parent_dir\000"
 3177      6E745F64 
 3177      697200
 3178              	.LASF50:
 3179 02da 73717561 		.ascii	"squaresCounter\000"
 3179      72657343 
 3179      6F756E74 
 3179      657200
 3180              	.LASF16:
 3181 02e9 696E7374 		.ascii	"instruction\000"
 3181      72756374 
 3181      696F6E00 
 3182              	.LASF19:
 3183 02f5 70617468 		.ascii	"pathfind\000"
 3183      66696E64 
 3183      00
 3184              	.LASF4:
 3185 02fe 6C6F6E67 		.ascii	"long int\000"
 3185      20696E74 
 3185      00
 3186              	.LASF14:
 3187 0307 6C6F6E67 		.ascii	"long double\000"
 3187      20646F75 
 3187      626C6500 
 3188              	.LASF44:
 3189 0313 656E644F 		.ascii	"endOfInstruction\000"
 3189      66496E73 
 3189      74727563 
 3189      74696F6E 
 3189      00
 3190              	.LASF0:
ARM GAS  C:\Users\lger522\AppData\Local\Temp\ccu7wruq.s 			page 66


 3191 0324 7369676E 		.ascii	"signed char\000"
 3191      65642063 
 3191      68617200 
 3192              	.LASF12:
 3193 0330 646F7562 		.ascii	"double\000"
 3193      6C6500
 3194              	.LASF41:
 3195 0337 6E657874 		.ascii	"nextMoveRow\000"
 3195      4D6F7665 
 3195      526F7700 
 3196              	.LASF37:
 3197 0343 72657665 		.ascii	"reversedSquares\000"
 3197      72736564 
 3197      53717561 
 3197      72657300 
 3198              		.ident	"GCC: (GNU Tools for ARM Embedded Processors) 5.4.1 20160609 (release) [ARM/embedded-5-bran
