ARM GAS  C:\Users\hsal869\AppData\Local\Temp\ccC65npr.s 			page 1


   1              		.syntax unified
   2              		.cpu cortex-m3
   3              		.fpu softvfp
   4              		.eabi_attribute 20, 1
   5              		.eabi_attribute 21, 1
   6              		.eabi_attribute 23, 3
   7              		.eabi_attribute 24, 1
   8              		.eabi_attribute 25, 1
   9              		.eabi_attribute 26, 1
  10              		.eabi_attribute 30, 1
  11              		.eabi_attribute 34, 1
  12              		.eabi_attribute 18, 4
  13              		.thumb
  14              		.syntax unified
  15              		.file	"main.c"
  16              		.text
  17              	.Ltext0:
  18              		.cfi_sections	.debug_frame
  19              		.section	.text.eoc,"ax",%progbits
  20              		.align	2
  21              		.global	eoc
  22              		.thumb
  23              		.thumb_func
  24              		.type	eoc, %function
  25              	eoc:
  26              	.LFB64:
  27              		.file 1 "main.c"
   1:main.c        **** /* ========================================
   2:main.c        ****  * Fully working code: 
   3:main.c        ****  * PWM      : 
   4:main.c        ****  * Encoder  : 
   5:main.c        ****  * ADC      :
   6:main.c        ****  * USB      : port displays speed and position.
   7:main.c        ****  * CMD: "PW xx"
   8:main.c        ****  * Copyright Univ of Auckland, 2016
   9:main.c        ****  * All Rights Reserved
  10:main.c        ****  * UNPUBLISHED, LICENSED SOFTWARE.
  11:main.c        ****  *
  12:main.c        ****  * CONFIDENTIAL AND PROPRIETARY INFORMATION
  13:main.c        ****  * WHICH IS THE PROPERTY OF Univ of Auckland.
  14:main.c        ****  *
  15:main.c        ****  * ========================================
  16:main.c        **** */
  17:main.c        **** #include <stdio.h>
  18:main.c        **** #include <string.h>
  19:main.c        **** #include <stdlib.h>
  20:main.c        **** #include <project.h>
  21:main.c        **** //* ========================================
  22:main.c        **** #include "defines.h"
  23:main.c        **** #include "vars.h"
  24:main.c        **** //* ========================================
  25:main.c        **** void usbPutString(char *s);
  26:main.c        **** void usbPutChar(char c);
  27:main.c        **** //* ========================================
  28:main.c        **** 
  29:main.c        **** volatile int flag = 0;
  30:main.c        **** volatile int result = 0;
ARM GAS  C:\Users\hsal869\AppData\Local\Temp\ccC65npr.s 			page 2


  31:main.c        **** 
  32:main.c        **** 
  33:main.c        **** CY_ISR(eoc) {
  28              		.loc 1 33 0
  29              		.cfi_startproc
  30              		@ args = 0, pretend = 0, frame = 0
  31              		@ frame_needed = 0, uses_anonymous_args = 0
  32              		@ link register save eliminated.
  34:main.c        ****     // Some Logic
  35:main.c        ****     flag = 1;
  33              		.loc 1 35 0
  34 0000 0122     		movs	r2, #1
  35 0002 014B     		ldr	r3, .L2
  36 0004 1A60     		str	r2, [r3]
  37 0006 7047     		bx	lr
  38              	.L3:
  39              		.align	2
  40              	.L2:
  41 0008 00000000 		.word	.LANCHOR0
  42              		.cfi_endproc
  43              	.LFE64:
  44              		.size	eoc, .-eoc
  45              		.section	.text.usbPutString,"ax",%progbits
  46              		.align	2
  47              		.global	usbPutString
  48              		.thumb
  49              		.thumb_func
  50              		.type	usbPutString, %function
  51              	usbPutString:
  52              	.LFB66:
  36:main.c        **** }
  37:main.c        **** 
  38:main.c        **** int main()
  39:main.c        **** {
  40:main.c        ****     
  41:main.c        **** 
  42:main.c        **** // --------------------------------    
  43:main.c        **** // ----- INITIALIZATIONS ----------
  44:main.c        ****     CYGlobalIntEnable;
  45:main.c        **** 
  46:main.c        **** // ------USB SETUP ----------------    
  47:main.c        ****   
  48:main.c        ****     USBUART_Start(0,USBUART_5V_OPERATION);     
  49:main.c        ****         
  50:main.c        ****     //RF_BT_SELECT_Write(0);
  51:main.c        ****     ADC_SAR_1_Start();
  52:main.c        ****     ADC_SAR_1_StartConvert();
  53:main.c        ****     isr_1_StartEx(eoc);
  54:main.c        ****     
  55:main.c        ****     for(;;)
  56:main.c        ****     {   
  57:main.c        ****         
  58:main.c        ****         if (flag == 1) {
  59:main.c        ****             
  60:main.c        ****             ADC_SAR_1_IRQ_Disable();
  61:main.c        ****             
  62:main.c        ****             usbPutString("te");
ARM GAS  C:\Users\hsal869\AppData\Local\Temp\ccC65npr.s 			page 3


  63:main.c        ****             usbPutString("\r\n");
  64:main.c        ****             /* Place your application code here. */
  65:main.c        ****             if (flag_KB_string == 1)
  66:main.c        ****             {
  67:main.c        ****                 usbPutString(line);
  68:main.c        ****                 flag_KB_string = 0;
  69:main.c        ****                 
  70:main.c        ****             }
  71:main.c        ****             flag = 0;
  72:main.c        ****             
  73:main.c        ****             ADC_SAR_1_IRQ_Enable();
  74:main.c        ****         }
  75:main.c        ****         
  76:main.c        ****         
  77:main.c        ****         
  78:main.c        ****        
  79:main.c        ****     }   
  80:main.c        **** }
  81:main.c        **** //* ========================================
  82:main.c        **** void usbPutString(char *s)
  83:main.c        **** {
  53              		.loc 1 83 0
  54              		.cfi_startproc
  55              		@ args = 0, pretend = 0, frame = 0
  56              		@ frame_needed = 0, uses_anonymous_args = 0
  57              	.LVL0:
  58 0000 10B5     		push	{r4, lr}
  59              		.cfi_def_cfa_offset 8
  60              		.cfi_offset 4, -8
  61              		.cfi_offset 14, -4
  62 0002 0446     		mov	r4, r0
  63              	.LVL1:
  64              	.L5:
  84:main.c        **** // !! Assumes that *s is a string with allocated space >=64 chars     
  85:main.c        **** //  Since USB implementation retricts data packets to 64 chars, this function truncates the
  86:main.c        **** //  length to 62 char (63rd char is a '!')
  87:main.c        **** 
  88:main.c        **** #ifdef USE_USB     
  89:main.c        ****     while (USBUART_CDCIsReady() == 0);
  65              		.loc 1 89 0 discriminator 1
  66 0004 FFF7FEFF 		bl	USBUART_CDCIsReady
  67              	.LVL2:
  68 0008 0028     		cmp	r0, #0
  69 000a FBD0     		beq	.L5
  90:main.c        ****     s[63]='\0';
  70              		.loc 1 90 0
  71 000c 0023     		movs	r3, #0
  72 000e 84F83F30 		strb	r3, [r4, #63]
  91:main.c        ****     s[62]='!';
  73              		.loc 1 91 0
  74 0012 2123     		movs	r3, #33
  75 0014 84F83E30 		strb	r3, [r4, #62]
  92:main.c        ****     USBUART_PutData((uint8*)s,strlen(s));
  76              		.loc 1 92 0
  77 0018 2046     		mov	r0, r4
  78 001a FFF7FEFF 		bl	strlen
  79              	.LVL3:
ARM GAS  C:\Users\hsal869\AppData\Local\Temp\ccC65npr.s 			page 4


  80 001e 81B2     		uxth	r1, r0
  81 0020 2046     		mov	r0, r4
  82 0022 FFF7FEFF 		bl	USBUART_PutData
  83              	.LVL4:
  84 0026 10BD     		pop	{r4, pc}
  85              		.cfi_endproc
  86              	.LFE66:
  87              		.size	usbPutString, .-usbPutString
  88              		.section	.text.main,"ax",%progbits
  89              		.align	2
  90              		.global	main
  91              		.thumb
  92              		.thumb_func
  93              		.type	main, %function
  94              	main:
  95              	.LFB65:
  39:main.c        ****     
  96              		.loc 1 39 0
  97              		.cfi_startproc
  98              		@ Volatile: function does not return.
  99              		@ args = 0, pretend = 0, frame = 0
 100              		@ frame_needed = 0, uses_anonymous_args = 0
 101 0000 08B5     		push	{r3, lr}
 102              		.cfi_def_cfa_offset 8
 103              		.cfi_offset 3, -8
 104              		.cfi_offset 14, -4
  44:main.c        **** 
 105              		.loc 1 44 0
 106              		.syntax unified
 107              	@ 44 "main.c" 1
 108 0002 62B6     		CPSIE   i
 109              	@ 0 "" 2
  48:main.c        ****         
 110              		.loc 1 48 0
 111              		.thumb
 112              		.syntax unified
 113 0004 0121     		movs	r1, #1
 114 0006 0020     		movs	r0, #0
 115 0008 FFF7FEFF 		bl	USBUART_Start
 116              	.LVL5:
  51:main.c        ****     ADC_SAR_1_StartConvert();
 117              		.loc 1 51 0
 118 000c FFF7FEFF 		bl	ADC_SAR_1_Start
 119              	.LVL6:
  52:main.c        ****     isr_1_StartEx(eoc);
 120              		.loc 1 52 0
 121 0010 FFF7FEFF 		bl	ADC_SAR_1_StartConvert
 122              	.LVL7:
  53:main.c        ****     
 123              		.loc 1 53 0
 124 0014 0F48     		ldr	r0, .L12
 125 0016 FFF7FEFF 		bl	isr_1_StartEx
 126              	.LVL8:
 127              	.L8:
  58:main.c        ****             
 128              		.loc 1 58 0
 129 001a 0F4B     		ldr	r3, .L12+4
ARM GAS  C:\Users\hsal869\AppData\Local\Temp\ccC65npr.s 			page 5


 130 001c 1B68     		ldr	r3, [r3]
 131 001e 012B     		cmp	r3, #1
 132 0020 FBD1     		bne	.L8
  60:main.c        ****             
 133              		.loc 1 60 0
 134 0022 FFF7FEFF 		bl	ADC_SAR_1_IRQ_Disable
 135              	.LVL9:
  62:main.c        ****             usbPutString("\r\n");
 136              		.loc 1 62 0
 137 0026 0D48     		ldr	r0, .L12+8
 138 0028 FFF7FEFF 		bl	usbPutString
 139              	.LVL10:
  63:main.c        ****             /* Place your application code here. */
 140              		.loc 1 63 0
 141 002c 0C48     		ldr	r0, .L12+12
 142 002e FFF7FEFF 		bl	usbPutString
 143              	.LVL11:
  65:main.c        ****             {
 144              		.loc 1 65 0
 145 0032 094B     		ldr	r3, .L12+4
 146 0034 1B79     		ldrb	r3, [r3, #4]	@ zero_extendqisi2
 147 0036 012B     		cmp	r3, #1
 148 0038 05D1     		bne	.L9
  67:main.c        ****                 flag_KB_string = 0;
 149              		.loc 1 67 0
 150 003a 0A48     		ldr	r0, .L12+16
 151 003c FFF7FEFF 		bl	usbPutString
 152              	.LVL12:
  68:main.c        ****                 
 153              		.loc 1 68 0
 154 0040 0022     		movs	r2, #0
 155 0042 054B     		ldr	r3, .L12+4
 156 0044 1A71     		strb	r2, [r3, #4]
 157              	.L9:
  71:main.c        ****             
 158              		.loc 1 71 0
 159 0046 0022     		movs	r2, #0
 160 0048 034B     		ldr	r3, .L12+4
 161 004a 1A60     		str	r2, [r3]
  73:main.c        ****         }
 162              		.loc 1 73 0
 163 004c FFF7FEFF 		bl	ADC_SAR_1_IRQ_Enable
 164              	.LVL13:
 165 0050 E3E7     		b	.L8
 166              	.L13:
 167 0052 00BF     		.align	2
 168              	.L12:
 169 0054 00000000 		.word	eoc
 170 0058 00000000 		.word	.LANCHOR0
 171 005c 00000000 		.word	.LC0
 172 0060 04000000 		.word	.LC1
 173 0064 00000000 		.word	line
 174              		.cfi_endproc
 175              	.LFE65:
 176              		.size	main, .-main
 177              		.section	.text.usbPutChar,"ax",%progbits
 178              		.align	2
ARM GAS  C:\Users\hsal869\AppData\Local\Temp\ccC65npr.s 			page 6


 179              		.global	usbPutChar
 180              		.thumb
 181              		.thumb_func
 182              		.type	usbPutChar, %function
 183              	usbPutChar:
 184              	.LFB67:
  93:main.c        **** #endif
  94:main.c        **** }
  95:main.c        **** //* ========================================
  96:main.c        **** void usbPutChar(char c)
  97:main.c        **** {
 185              		.loc 1 97 0
 186              		.cfi_startproc
 187              		@ args = 0, pretend = 0, frame = 0
 188              		@ frame_needed = 0, uses_anonymous_args = 0
 189              	.LVL14:
 190 0000 10B5     		push	{r4, lr}
 191              		.cfi_def_cfa_offset 8
 192              		.cfi_offset 4, -8
 193              		.cfi_offset 14, -4
 194 0002 0446     		mov	r4, r0
 195              	.LVL15:
 196              	.L15:
  98:main.c        **** #ifdef USE_USB     
  99:main.c        ****     while (USBUART_CDCIsReady() == 0);
 197              		.loc 1 99 0 discriminator 1
 198 0004 FFF7FEFF 		bl	USBUART_CDCIsReady
 199              	.LVL16:
 200 0008 0028     		cmp	r0, #0
 201 000a FBD0     		beq	.L15
 100:main.c        ****     USBUART_PutChar(c);
 202              		.loc 1 100 0
 203 000c 2046     		mov	r0, r4
 204 000e FFF7FEFF 		bl	USBUART_PutChar
 205              	.LVL17:
 206 0012 10BD     		pop	{r4, pc}
 207              		.cfi_endproc
 208              	.LFE67:
 209              		.size	usbPutChar, .-usbPutChar
 210              		.global	result
 211              		.global	flag
 212              		.comm	system_state,32,4
 213              		.comm	usbBuffer,64,4
 214              		.comm	entry,64,4
 215              		.comm	line,64,4
 216              		.global	displaystring
 217              		.global	flag_rf_transmission_active
 218              		.global	dataready_flag
 219              		.global	flag_KB_string
 220              		.global	flag_packet
 221              		.global	flag_rx
 222              		.global	flag_ts_display
 223              		.global	flag_ts_speed
 224              		.global	flag_ts_update
 225              		.global	flag_ts_enc
 226              		.global	ts_display
 227              		.global	ts_speed
ARM GAS  C:\Users\hsal869\AppData\Local\Temp\ccC65npr.s 			page 7


 228              		.global	ts_update
 229              		.global	ts_enc
 230              		.global	ts
 231              		.data
 232              		.align	2
 233              		.type	displaystring, %object
 234              		.size	displaystring, 64
 235              	displaystring:
 236 0000 43533330 		.ascii	"CS301 2016\012\000"
 236      31203230 
 236      31360A00 
 237 000c 00000000 		.space	52
 237      00000000 
 237      00000000 
 237      00000000 
 237      00000000 
 238              		.type	flag_rf_transmission_active, %object
 239              		.size	flag_rf_transmission_active, 1
 240              	flag_rf_transmission_active:
 241 0040 0A       		.byte	10
 242              		.section	.rodata.str1.4,"aMS",%progbits,1
 243              		.align	2
 244              	.LC0:
 245 0000 746500   		.ascii	"te\000"
 246 0003 00       		.space	1
 247              	.LC1:
 248 0004 0D0A00   		.ascii	"\015\012\000"
 249              		.bss
 250              		.align	2
 251              		.set	.LANCHOR0,. + 0
 252              		.type	flag, %object
 253              		.size	flag, 4
 254              	flag:
 255 0000 00000000 		.space	4
 256              		.type	flag_KB_string, %object
 257              		.size	flag_KB_string, 1
 258              	flag_KB_string:
 259 0004 00       		.space	1
 260 0005 000000   		.space	3
 261              		.type	result, %object
 262              		.size	result, 4
 263              	result:
 264 0008 00000000 		.space	4
 265              		.type	dataready_flag, %object
 266              		.size	dataready_flag, 1
 267              	dataready_flag:
 268 000c 00       		.space	1
 269              		.type	flag_packet, %object
 270              		.size	flag_packet, 1
 271              	flag_packet:
 272 000d 00       		.space	1
 273              		.type	flag_rx, %object
 274              		.size	flag_rx, 1
 275              	flag_rx:
 276 000e 00       		.space	1
 277              		.type	flag_ts_display, %object
 278              		.size	flag_ts_display, 1
ARM GAS  C:\Users\hsal869\AppData\Local\Temp\ccC65npr.s 			page 8


 279              	flag_ts_display:
 280 000f 00       		.space	1
 281              		.type	flag_ts_speed, %object
 282              		.size	flag_ts_speed, 1
 283              	flag_ts_speed:
 284 0010 00       		.space	1
 285              		.type	flag_ts_update, %object
 286              		.size	flag_ts_update, 1
 287              	flag_ts_update:
 288 0011 00       		.space	1
 289              		.type	flag_ts_enc, %object
 290              		.size	flag_ts_enc, 1
 291              	flag_ts_enc:
 292 0012 00       		.space	1
 293 0013 00       		.space	1
 294              		.type	ts_display, %object
 295              		.size	ts_display, 2
 296              	ts_display:
 297 0014 0000     		.space	2
 298              		.type	ts_speed, %object
 299              		.size	ts_speed, 2
 300              	ts_speed:
 301 0016 0000     		.space	2
 302              		.type	ts_update, %object
 303              		.size	ts_update, 2
 304              	ts_update:
 305 0018 0000     		.space	2
 306              		.type	ts_enc, %object
 307              		.size	ts_enc, 2
 308              	ts_enc:
 309 001a 0000     		.space	2
 310              		.type	ts, %object
 311              		.size	ts, 1
 312              	ts:
 313 001c 00       		.space	1
 314              		.text
 315              	.Letext0:
 316              		.file 2 "c:\\program files (x86)\\cypress\\psoc creator\\4.2\\psoc creator\\import\\gnu\\arm\\5.4.
 317              		.file 3 "c:\\program files (x86)\\cypress\\psoc creator\\4.2\\psoc creator\\import\\gnu\\arm\\5.4.
 318              		.file 4 "Generated_Source\\PSoC5/cytypes.h"
 319              		.file 5 "vars.h"
 320              		.file 6 "Generated_Source\\PSoC5/core_cm3.h"
 321              		.file 7 "Generated_Source\\PSoC5/USBUART_cdc.h"
 322              		.file 8 "c:\\program files (x86)\\cypress\\psoc creator\\4.2\\psoc creator\\import\\gnu\\arm\\5.4.
 323              		.file 9 "Generated_Source\\PSoC5/USBUART.h"
 324              		.file 10 "Generated_Source\\PSoC5/ADC_SAR_1.h"
 325              		.file 11 "Generated_Source\\PSoC5/isr_1.h"
 326              		.file 12 "Generated_Source\\PSoC5/ADC_SAR_1_IRQ.h"