ARM GAS  C:\Users\hsal869\AppData\Local\Temp\ccObBysy.s 			page 1


   1              		.syntax unified
   2              		.cpu cortex-m3
   3              		.fpu softvfp
   4              		.eabi_attribute 20, 1
   5              		.eabi_attribute 21, 1
   6              		.eabi_attribute 23, 3
   7              		.eabi_attribute 24, 1
   8              		.eabi_attribute 25, 1
   9              		.eabi_attribute 26, 1
  10              		.eabi_attribute 30, 6
  11              		.eabi_attribute 34, 1
  12              		.eabi_attribute 18, 4
  13              		.thumb
  14              		.syntax unified
  15              		.file	"main.c"
  16              		.text
  17              	.Ltext0:
  18              		.cfi_sections	.debug_frame
  19              		.global	ts
  20              		.bss
  21              		.type	ts, %object
  22              		.size	ts, 1
  23              	ts:
  24 0000 00       		.space	1
  25              		.global	ts_enc
  26 0001 00       		.align	1
  27              		.type	ts_enc, %object
  28              		.size	ts_enc, 2
  29              	ts_enc:
  30 0002 0000     		.space	2
  31              		.global	ts_update
  32              		.align	1
  33              		.type	ts_update, %object
  34              		.size	ts_update, 2
  35              	ts_update:
  36 0004 0000     		.space	2
  37              		.global	ts_speed
  38              		.align	1
  39              		.type	ts_speed, %object
  40              		.size	ts_speed, 2
  41              	ts_speed:
  42 0006 0000     		.space	2
  43              		.global	ts_display
  44              		.align	1
  45              		.type	ts_display, %object
  46              		.size	ts_display, 2
  47              	ts_display:
  48 0008 0000     		.space	2
  49              		.global	flag_ts_enc
  50              		.type	flag_ts_enc, %object
  51              		.size	flag_ts_enc, 1
  52              	flag_ts_enc:
  53 000a 00       		.space	1
  54              		.global	flag_ts_update
  55              		.type	flag_ts_update, %object
  56              		.size	flag_ts_update, 1
  57              	flag_ts_update:
ARM GAS  C:\Users\hsal869\AppData\Local\Temp\ccObBysy.s 			page 2


  58 000b 00       		.space	1
  59              		.global	flag_ts_speed
  60              		.type	flag_ts_speed, %object
  61              		.size	flag_ts_speed, 1
  62              	flag_ts_speed:
  63 000c 00       		.space	1
  64              		.global	flag_ts_display
  65              		.type	flag_ts_display, %object
  66              		.size	flag_ts_display, 1
  67              	flag_ts_display:
  68 000d 00       		.space	1
  69              		.global	flag_rx
  70              		.type	flag_rx, %object
  71              		.size	flag_rx, 1
  72              	flag_rx:
  73 000e 00       		.space	1
  74              		.global	flag_packet
  75              		.type	flag_packet, %object
  76              		.size	flag_packet, 1
  77              	flag_packet:
  78 000f 00       		.space	1
  79              		.global	flag_KB_string
  80              		.type	flag_KB_string, %object
  81              		.size	flag_KB_string, 1
  82              	flag_KB_string:
  83 0010 00       		.space	1
  84              		.global	dataready_flag
  85              		.type	dataready_flag, %object
  86              		.size	dataready_flag, 1
  87              	dataready_flag:
  88 0011 00       		.space	1
  89              		.global	flag_rf_transmission_active
  90              		.data
  91              		.type	flag_rf_transmission_active, %object
  92              		.size	flag_rf_transmission_active, 1
  93              	flag_rf_transmission_active:
  94 0000 0A       		.byte	10
  95              		.global	displaystring
  96 0001 000000   		.align	2
  97              		.type	displaystring, %object
  98              		.size	displaystring, 64
  99              	displaystring:
 100 0004 43533330 		.ascii	"CS301 2016\012\000"
 100      31203230 
 100      31360A00 
 101 0010 00000000 		.space	52
 101      00000000 
 101      00000000 
 101      00000000 
 101      00000000 
 102              		.comm	line,64,4
 103              		.comm	entry,64,4
 104              		.comm	usbBuffer,64,4
 105              		.comm	system_state,32,4
 106              		.global	periodMode
 107              		.align	2
 108              		.type	periodMode, %object
ARM GAS  C:\Users\hsal869\AppData\Local\Temp\ccObBysy.s 			page 3


 109              		.size	periodMode, 4
 110              	periodMode:
 111 0044 01000000 		.word	1
 112              		.section	.text.main,"ax",%progbits
 113              		.align	2
 114              		.global	main
 115              		.thumb
 116              		.thumb_func
 117              		.type	main, %function
 118              	main:
 119              	.LFB64:
 120              		.file 1 "main.c"
   1:main.c        **** /* ========================================
   2:main.c        ****  * Fully working code: 
   3:main.c        ****  * PWM      : 
   4:main.c        ****  * Encoder  : 
   5:main.c        ****  * ADC      :
   6:main.c        ****  * USB      : port displays speed and position.
   7:main.c        ****  * CMD: "PW xx"
   8:main.c        ****  * Copyright Univ of Auckland, 2016
   9:main.c        ****  * All Rights Reserved
  10:main.c        ****  * UNPUBLISHED, LICENSED SOFTWARE.
  11:main.c        ****  *
  12:main.c        ****  * CONFIDENTIAL AND PROPRIETARY INFORMATION
  13:main.c        ****  * WHICH IS THE PROPERTY OF Univ of Auckland.
  14:main.c        ****  *
  15:main.c        ****  * ========================================
  16:main.c        **** */
  17:main.c        **** #include <stdio.h>
  18:main.c        **** #include <string.h>
  19:main.c        **** #include <stdlib.h>
  20:main.c        **** #include <project.h>
  21:main.c        **** //* ========================================
  22:main.c        **** #include "defines.h"
  23:main.c        **** #include "vars.h"
  24:main.c        **** //* ========================================
  25:main.c        **** void usbPutString(char *s);
  26:main.c        **** void usbPutChar(char c);
  27:main.c        **** void handle_usb();
  28:main.c        **** //* ========================================
  29:main.c        **** 
  30:main.c        **** int periodMode = 1;
  31:main.c        **** int main()
  32:main.c        **** {
 121              		.loc 1 32 0
 122              		.cfi_startproc
 123              		@ args = 0, pretend = 0, frame = 0
 124              		@ frame_needed = 1, uses_anonymous_args = 0
 125 0000 80B5     		push	{r7, lr}
 126              		.cfi_def_cfa_offset 8
 127              		.cfi_offset 7, -8
 128              		.cfi_offset 14, -4
 129 0002 00AF     		add	r7, sp, #0
 130              		.cfi_def_cfa_register 7
  33:main.c        ****     
  34:main.c        **** 
  35:main.c        **** // --------------------------------    
ARM GAS  C:\Users\hsal869\AppData\Local\Temp\ccObBysy.s 			page 4


  36:main.c        **** // ----- INITIALIZATIONS ----------
  37:main.c        ****     CYGlobalIntEnable;
 131              		.loc 1 37 0
 132              		.syntax unified
 133              	@ 37 "main.c" 1
 134 0004 62B6     		CPSIE   i
 135              	@ 0 "" 2
  38:main.c        **** 
  39:main.c        **** // ------USB SETUP ----------------    
  40:main.c        **** #ifdef USE_USB    
  41:main.c        ****     USBUART_Start(0,USBUART_5V_OPERATION);
 136              		.loc 1 41 0
 137              		.thumb
 138              		.syntax unified
 139 0006 0121     		movs	r1, #1
 140 0008 0020     		movs	r0, #0
 141 000a FFF7FEFF 		bl	USBUART_Start
  42:main.c        **** #endif        
  43:main.c        ****         
  44:main.c        ****     //RF_BT_SELECT_Write(0);
  45:main.c        **** 
  46:main.c        ****     PWM_1_Start();
 142              		.loc 1 46 0
 143 000e FFF7FEFF 		bl	PWM_1_Start
  47:main.c        ****     PWM_1_WriteCompare(204);
 144              		.loc 1 47 0
 145 0012 CC20     		movs	r0, #204
 146 0014 FFF7FEFF 		bl	PWM_1_WriteCompare
  48:main.c        **** 
  49:main.c        ****     usbPutString(displaystring);
 147              		.loc 1 49 0
 148 0018 0748     		ldr	r0, .L4
 149 001a FFF7FEFF 		bl	usbPutString
 150              	.L3:
  50:main.c        ****     
  51:main.c        ****     for(;;)
  52:main.c        ****     {
  53:main.c        ****         /* Place your application code here. */
  54:main.c        ****         handle_usb();
 151              		.loc 1 54 0
 152 001e FFF7FEFF 		bl	handle_usb
  55:main.c        ****         if (flag_KB_string == 1)
 153              		.loc 1 55 0
 154 0022 064B     		ldr	r3, .L4+4
 155 0024 1B78     		ldrb	r3, [r3]	@ zero_extendqisi2
 156 0026 012B     		cmp	r3, #1
 157 0028 F9D1     		bne	.L3
  56:main.c        ****         {
  57:main.c        ****             usbPutString(line);
 158              		.loc 1 57 0
 159 002a 0548     		ldr	r0, .L4+8
 160 002c FFF7FEFF 		bl	usbPutString
  58:main.c        ****             flag_KB_string = 0;
 161              		.loc 1 58 0
 162 0030 024B     		ldr	r3, .L4+4
 163 0032 0022     		movs	r2, #0
 164 0034 1A70     		strb	r2, [r3]
ARM GAS  C:\Users\hsal869\AppData\Local\Temp\ccObBysy.s 			page 5


  59:main.c        ****         }        
  60:main.c        ****     }   
 165              		.loc 1 60 0
 166 0036 F2E7     		b	.L3
 167              	.L5:
 168              		.align	2
 169              	.L4:
 170 0038 00000000 		.word	displaystring
 171 003c 00000000 		.word	flag_KB_string
 172 0040 00000000 		.word	line
 173              		.cfi_endproc
 174              	.LFE64:
 175              		.size	main, .-main
 176              		.section	.text.usbPutString,"ax",%progbits
 177              		.align	2
 178              		.global	usbPutString
 179              		.thumb
 180              		.thumb_func
 181              		.type	usbPutString, %function
 182              	usbPutString:
 183              	.LFB65:
  61:main.c        **** }
  62:main.c        **** //* ========================================
  63:main.c        **** void usbPutString(char *s)
  64:main.c        **** {
 184              		.loc 1 64 0
 185              		.cfi_startproc
 186              		@ args = 0, pretend = 0, frame = 8
 187              		@ frame_needed = 1, uses_anonymous_args = 0
 188 0000 80B5     		push	{r7, lr}
 189              		.cfi_def_cfa_offset 8
 190              		.cfi_offset 7, -8
 191              		.cfi_offset 14, -4
 192 0002 82B0     		sub	sp, sp, #8
 193              		.cfi_def_cfa_offset 16
 194 0004 00AF     		add	r7, sp, #0
 195              		.cfi_def_cfa_register 7
 196 0006 7860     		str	r0, [r7, #4]
  65:main.c        **** // !! Assumes that *s is a string with allocated space >=64 chars     
  66:main.c        **** //  Since USB implementation retricts data packets to 64 chars, this function truncates the
  67:main.c        **** //  length to 62 char (63rd char is a '!')
  68:main.c        **** 
  69:main.c        **** #ifdef USE_USB     
  70:main.c        ****     while (USBUART_CDCIsReady() == 0);
 197              		.loc 1 70 0
 198 0008 00BF     		nop
 199              	.L7:
 200              		.loc 1 70 0 is_stmt 0 discriminator 1
 201 000a FFF7FEFF 		bl	USBUART_CDCIsReady
 202 000e 0346     		mov	r3, r0
 203 0010 002B     		cmp	r3, #0
 204 0012 FAD0     		beq	.L7
  71:main.c        ****     s[63]='\0';
 205              		.loc 1 71 0 is_stmt 1
 206 0014 7B68     		ldr	r3, [r7, #4]
 207 0016 3F33     		adds	r3, r3, #63
 208 0018 0022     		movs	r2, #0
ARM GAS  C:\Users\hsal869\AppData\Local\Temp\ccObBysy.s 			page 6


 209 001a 1A70     		strb	r2, [r3]
  72:main.c        ****     s[62]='!';
 210              		.loc 1 72 0
 211 001c 7B68     		ldr	r3, [r7, #4]
 212 001e 3E33     		adds	r3, r3, #62
 213 0020 2122     		movs	r2, #33
 214 0022 1A70     		strb	r2, [r3]
  73:main.c        ****     USBUART_PutData((uint8*)s,strlen(s));
 215              		.loc 1 73 0
 216 0024 7868     		ldr	r0, [r7, #4]
 217 0026 FFF7FEFF 		bl	strlen
 218 002a 0346     		mov	r3, r0
 219 002c 9BB2     		uxth	r3, r3
 220 002e 1946     		mov	r1, r3
 221 0030 7868     		ldr	r0, [r7, #4]
 222 0032 FFF7FEFF 		bl	USBUART_PutData
  74:main.c        **** #endif
  75:main.c        **** }
 223              		.loc 1 75 0
 224 0036 00BF     		nop
 225 0038 0837     		adds	r7, r7, #8
 226              		.cfi_def_cfa_offset 8
 227 003a BD46     		mov	sp, r7
 228              		.cfi_def_cfa_register 13
 229              		@ sp needed
 230 003c 80BD     		pop	{r7, pc}
 231              		.cfi_endproc
 232              	.LFE65:
 233              		.size	usbPutString, .-usbPutString
 234 003e 00BF     		.section	.text.usbPutChar,"ax",%progbits
 235              		.align	2
 236              		.global	usbPutChar
 237              		.thumb
 238              		.thumb_func
 239              		.type	usbPutChar, %function
 240              	usbPutChar:
 241              	.LFB66:
  76:main.c        **** //* ========================================
  77:main.c        **** void usbPutChar(char c)
  78:main.c        **** {
 242              		.loc 1 78 0
 243              		.cfi_startproc
 244              		@ args = 0, pretend = 0, frame = 8
 245              		@ frame_needed = 1, uses_anonymous_args = 0
 246 0000 80B5     		push	{r7, lr}
 247              		.cfi_def_cfa_offset 8
 248              		.cfi_offset 7, -8
 249              		.cfi_offset 14, -4
 250 0002 82B0     		sub	sp, sp, #8
 251              		.cfi_def_cfa_offset 16
 252 0004 00AF     		add	r7, sp, #0
 253              		.cfi_def_cfa_register 7
 254 0006 0346     		mov	r3, r0
 255 0008 FB71     		strb	r3, [r7, #7]
  79:main.c        **** #ifdef USE_USB     
  80:main.c        ****     while (USBUART_CDCIsReady() == 0);
 256              		.loc 1 80 0
ARM GAS  C:\Users\hsal869\AppData\Local\Temp\ccObBysy.s 			page 7


 257 000a 00BF     		nop
 258              	.L9:
 259              		.loc 1 80 0 is_stmt 0 discriminator 1
 260 000c FFF7FEFF 		bl	USBUART_CDCIsReady
 261 0010 0346     		mov	r3, r0
 262 0012 002B     		cmp	r3, #0
 263 0014 FAD0     		beq	.L9
  81:main.c        ****     USBUART_PutChar(c);
 264              		.loc 1 81 0 is_stmt 1
 265 0016 FB79     		ldrb	r3, [r7, #7]	@ zero_extendqisi2
 266 0018 1846     		mov	r0, r3
 267 001a FFF7FEFF 		bl	USBUART_PutChar
  82:main.c        **** #endif    
  83:main.c        **** }
 268              		.loc 1 83 0
 269 001e 00BF     		nop
 270 0020 0837     		adds	r7, r7, #8
 271              		.cfi_def_cfa_offset 8
 272 0022 BD46     		mov	sp, r7
 273              		.cfi_def_cfa_register 13
 274              		@ sp needed
 275 0024 80BD     		pop	{r7, pc}
 276              		.cfi_endproc
 277              	.LFE66:
 278              		.size	usbPutChar, .-usbPutChar
 279 0026 00BF     		.section	.text.handle_usb,"ax",%progbits
 280              		.align	2
 281              		.global	handle_usb
 282              		.thumb
 283              		.thumb_func
 284              		.type	handle_usb, %function
 285              	handle_usb:
 286              	.LFB67:
  84:main.c        **** //* ========================================
  85:main.c        **** void handle_usb()
  86:main.c        **** {
 287              		.loc 1 86 0
 288              		.cfi_startproc
 289              		@ args = 0, pretend = 0, frame = 8
 290              		@ frame_needed = 1, uses_anonymous_args = 0
 291 0000 80B5     		push	{r7, lr}
 292              		.cfi_def_cfa_offset 8
 293              		.cfi_offset 7, -8
 294              		.cfi_offset 14, -4
 295 0002 82B0     		sub	sp, sp, #8
 296              		.cfi_def_cfa_offset 16
 297 0004 00AF     		add	r7, sp, #0
 298              		.cfi_def_cfa_register 7
  87:main.c        ****     // handles input at terminal, echos it back to the terminal
  88:main.c        ****     // turn echo OFF, key emulation: only CR
  89:main.c        ****     // entered string is made available in 'line' and 'flag_KB_string' is set
  90:main.c        ****     
  91:main.c        ****     static uint8 usbStarted = FALSE;
  92:main.c        ****     static uint16 usbBufCount = 0;
  93:main.c        ****     uint8 c; 
  94:main.c        ****     
  95:main.c        **** 
ARM GAS  C:\Users\hsal869\AppData\Local\Temp\ccObBysy.s 			page 8


  96:main.c        ****     if (!usbStarted)
 299              		.loc 1 96 0
 300 0006 3D4B     		ldr	r3, .L24
 301 0008 1B78     		ldrb	r3, [r3]	@ zero_extendqisi2
 302 000a 002B     		cmp	r3, #0
 303 000c 0AD1     		bne	.L11
  97:main.c        ****     {
  98:main.c        ****         if (USBUART_GetConfiguration())
 304              		.loc 1 98 0
 305 000e FFF7FEFF 		bl	USBUART_GetConfiguration
 306 0012 0346     		mov	r3, r0
 307 0014 002B     		cmp	r3, #0
 308 0016 6DD0     		beq	.L23
  99:main.c        ****         {
 100:main.c        ****             USBUART_CDC_Init();
 309              		.loc 1 100 0
 310 0018 FFF7FEFF 		bl	USBUART_CDC_Init
 101:main.c        ****             usbStarted = TRUE;
 311              		.loc 1 101 0
 312 001c 374B     		ldr	r3, .L24
 313 001e 0122     		movs	r2, #1
 314 0020 1A70     		strb	r2, [r3]
 102:main.c        ****         }
 103:main.c        ****     }
 104:main.c        ****     else
 105:main.c        ****     {
 106:main.c        ****         if (USBUART_DataIsReady() != 0)
 107:main.c        ****         {  
 108:main.c        ****             c = USBUART_GetChar();
 109:main.c        **** 
 110:main.c        ****             if ((c == 13) || (c == 10)) // when enter pressed 
 111:main.c        ****             {
 112:main.c        **** //                if (usbBufCount > 0)
 113:main.c        ****                 {
 114:main.c        ****                     entry[usbBufCount]= '\0';
 115:main.c        ****                     strcpy(line,entry); // user input : entry, address : line, line = entry
 116:main.c        ****                     char type = line[0]; // p period, d duty cycle e.g. p30
 117:main.c        ****                     if (type == 'p') { // in period mode
 118:main.c        ****                         periodMode = 1;
 119:main.c        ****                     } else if (type == 'd') { // in duty mode
 120:main.c        ****                         periodMode = 0;
 121:main.c        ****                     } else {
 122:main.c        ****                         int num = atoi(line); // atoi converts string to integer 
 123:main.c        ****                         if (periodMode) { // in period mode
 124:main.c        ****                             PWM_1_WritePeriod(num);
 125:main.c        ****                         } else { // assume its in duty cycle mode
 126:main.c        ****                             PWM_1_WriteCompare(num); 
 127:main.c        ****                         }
 128:main.c        ****                     }
 129:main.c        ****                     usbBufCount = 0;
 130:main.c        ****                     flag_KB_string = 1;
 131:main.c        ****                 }
 132:main.c        ****             }
 133:main.c        ****             else 
 134:main.c        ****             {
 135:main.c        ****                 if (((c == CHAR_BACKSP) || (c == CHAR_DEL) ) && (usbBufCount > 0) )
 136:main.c        ****                     usbBufCount--;
ARM GAS  C:\Users\hsal869\AppData\Local\Temp\ccObBysy.s 			page 9


 137:main.c        ****                 else
 138:main.c        ****                 {
 139:main.c        ****                     if (usbBufCount > (BUF_SIZE-2) ) // one less else strtok triggers a crash
 140:main.c        ****                     {
 141:main.c        ****                        USBUART_PutChar('!');        
 142:main.c        ****                     }
 143:main.c        ****                     else
 144:main.c        ****                         entry[usbBufCount++] = c;  
 145:main.c        ****                 }  
 146:main.c        ****             }
 147:main.c        ****         }
 148:main.c        ****     }    
 149:main.c        **** }
 315              		.loc 1 149 0
 316 0022 67E0     		b	.L23
 317              	.L11:
 106:main.c        ****         {  
 318              		.loc 1 106 0
 319 0024 FFF7FEFF 		bl	USBUART_DataIsReady
 320 0028 0346     		mov	r3, r0
 321 002a 002B     		cmp	r3, #0
 322 002c 62D0     		beq	.L23
 108:main.c        **** 
 323              		.loc 1 108 0
 324 002e FFF7FEFF 		bl	USBUART_GetChar
 325 0032 0346     		mov	r3, r0
 326 0034 FB71     		strb	r3, [r7, #7]
 110:main.c        ****             {
 327              		.loc 1 110 0
 328 0036 FB79     		ldrb	r3, [r7, #7]	@ zero_extendqisi2
 329 0038 0D2B     		cmp	r3, #13
 330 003a 02D0     		beq	.L14
 110:main.c        ****             {
 331              		.loc 1 110 0 is_stmt 0 discriminator 1
 332 003c FB79     		ldrb	r3, [r7, #7]	@ zero_extendqisi2
 333 003e 0A2B     		cmp	r3, #10
 334 0040 34D1     		bne	.L15
 335              	.L14:
 336              	.LBB2:
 114:main.c        ****                     strcpy(line,entry); // user input : entry, address : line, line = entry
 337              		.loc 1 114 0 is_stmt 1
 338 0042 2F4B     		ldr	r3, .L24+4
 339 0044 1B88     		ldrh	r3, [r3]
 340 0046 1A46     		mov	r2, r3
 341 0048 2E4B     		ldr	r3, .L24+8
 342 004a 0021     		movs	r1, #0
 343 004c 9954     		strb	r1, [r3, r2]
 115:main.c        ****                     char type = line[0]; // p period, d duty cycle e.g. p30
 344              		.loc 1 115 0
 345 004e 2D49     		ldr	r1, .L24+8
 346 0050 2D48     		ldr	r0, .L24+12
 347 0052 FFF7FEFF 		bl	strcpy
 116:main.c        ****                     if (type == 'p') { // in period mode
 348              		.loc 1 116 0
 349 0056 2C4B     		ldr	r3, .L24+12
 350 0058 1B78     		ldrb	r3, [r3]
 351 005a BB71     		strb	r3, [r7, #6]
ARM GAS  C:\Users\hsal869\AppData\Local\Temp\ccObBysy.s 			page 10


 117:main.c        ****                         periodMode = 1;
 352              		.loc 1 117 0
 353 005c BB79     		ldrb	r3, [r7, #6]	@ zero_extendqisi2
 354 005e 702B     		cmp	r3, #112
 355 0060 03D1     		bne	.L16
 118:main.c        ****                     } else if (type == 'd') { // in duty mode
 356              		.loc 1 118 0
 357 0062 2A4B     		ldr	r3, .L24+16
 358 0064 0122     		movs	r2, #1
 359 0066 1A60     		str	r2, [r3]
 360 0068 19E0     		b	.L17
 361              	.L16:
 119:main.c        ****                         periodMode = 0;
 362              		.loc 1 119 0
 363 006a BB79     		ldrb	r3, [r7, #6]	@ zero_extendqisi2
 364 006c 642B     		cmp	r3, #100
 365 006e 03D1     		bne	.L18
 120:main.c        ****                     } else {
 366              		.loc 1 120 0
 367 0070 264B     		ldr	r3, .L24+16
 368 0072 0022     		movs	r2, #0
 369 0074 1A60     		str	r2, [r3]
 370 0076 12E0     		b	.L17
 371              	.L18:
 372              	.LBB3:
 122:main.c        ****                         if (periodMode) { // in period mode
 373              		.loc 1 122 0
 374 0078 2348     		ldr	r0, .L24+12
 375 007a FFF7FEFF 		bl	atoi
 376 007e 3860     		str	r0, [r7]
 123:main.c        ****                             PWM_1_WritePeriod(num);
 377              		.loc 1 123 0
 378 0080 224B     		ldr	r3, .L24+16
 379 0082 1B68     		ldr	r3, [r3]
 380 0084 002B     		cmp	r3, #0
 381 0086 05D0     		beq	.L19
 124:main.c        ****                         } else { // assume its in duty cycle mode
 382              		.loc 1 124 0
 383 0088 3B68     		ldr	r3, [r7]
 384 008a DBB2     		uxtb	r3, r3
 385 008c 1846     		mov	r0, r3
 386 008e FFF7FEFF 		bl	PWM_1_WritePeriod
 387 0092 04E0     		b	.L17
 388              	.L19:
 126:main.c        ****                         }
 389              		.loc 1 126 0
 390 0094 3B68     		ldr	r3, [r7]
 391 0096 DBB2     		uxtb	r3, r3
 392 0098 1846     		mov	r0, r3
 393 009a FFF7FEFF 		bl	PWM_1_WriteCompare
 394              	.L17:
 395              	.LBE3:
 129:main.c        ****                     flag_KB_string = 1;
 396              		.loc 1 129 0
 397 009e 184B     		ldr	r3, .L24+4
 398 00a0 0022     		movs	r2, #0
 399 00a2 1A80     		strh	r2, [r3]	@ movhi
ARM GAS  C:\Users\hsal869\AppData\Local\Temp\ccObBysy.s 			page 11


 130:main.c        ****                 }
 400              		.loc 1 130 0
 401 00a4 1A4B     		ldr	r3, .L24+20
 402 00a6 0122     		movs	r2, #1
 403 00a8 1A70     		strb	r2, [r3]
 404              	.LBE2:
 113:main.c        ****                     entry[usbBufCount]= '\0';
 405              		.loc 1 113 0
 406 00aa 23E0     		b	.L13
 407              	.L15:
 135:main.c        ****                     usbBufCount--;
 408              		.loc 1 135 0
 409 00ac FB79     		ldrb	r3, [r7, #7]	@ zero_extendqisi2
 410 00ae 082B     		cmp	r3, #8
 411 00b0 02D0     		beq	.L20
 135:main.c        ****                     usbBufCount--;
 412              		.loc 1 135 0 is_stmt 0 discriminator 2
 413 00b2 FB79     		ldrb	r3, [r7, #7]	@ zero_extendqisi2
 414 00b4 7F2B     		cmp	r3, #127
 415 00b6 0AD1     		bne	.L21
 416              	.L20:
 135:main.c        ****                     usbBufCount--;
 417              		.loc 1 135 0 discriminator 3
 418 00b8 114B     		ldr	r3, .L24+4
 419 00ba 1B88     		ldrh	r3, [r3]
 420 00bc 002B     		cmp	r3, #0
 421 00be 06D0     		beq	.L21
 136:main.c        ****                 else
 422              		.loc 1 136 0 is_stmt 1
 423 00c0 0F4B     		ldr	r3, .L24+4
 424 00c2 1B88     		ldrh	r3, [r3]
 425 00c4 013B     		subs	r3, r3, #1
 426 00c6 9AB2     		uxth	r2, r3
 427 00c8 0D4B     		ldr	r3, .L24+4
 428 00ca 1A80     		strh	r2, [r3]	@ movhi
 429 00cc 12E0     		b	.L13
 430              	.L21:
 139:main.c        ****                     {
 431              		.loc 1 139 0
 432 00ce 0C4B     		ldr	r3, .L24+4
 433 00d0 1B88     		ldrh	r3, [r3]
 434 00d2 3E2B     		cmp	r3, #62
 435 00d4 03D9     		bls	.L22
 141:main.c        ****                     }
 436              		.loc 1 141 0
 437 00d6 2120     		movs	r0, #33
 438 00d8 FFF7FEFF 		bl	USBUART_PutChar
 439              		.loc 1 149 0
 440 00dc 0AE0     		b	.L23
 441              	.L22:
 144:main.c        ****                 }  
 442              		.loc 1 144 0
 443 00de 084B     		ldr	r3, .L24+4
 444 00e0 1B88     		ldrh	r3, [r3]
 445 00e2 5A1C     		adds	r2, r3, #1
 446 00e4 91B2     		uxth	r1, r2
 447 00e6 064A     		ldr	r2, .L24+4
ARM GAS  C:\Users\hsal869\AppData\Local\Temp\ccObBysy.s 			page 12


 448 00e8 1180     		strh	r1, [r2]	@ movhi
 449 00ea 1946     		mov	r1, r3
 450 00ec 054A     		ldr	r2, .L24+8
 451 00ee FB79     		ldrb	r3, [r7, #7]
 452 00f0 5354     		strb	r3, [r2, r1]
 453              		.loc 1 149 0
 454 00f2 FFE7     		b	.L23
 455              	.L13:
 456              	.L23:
 457 00f4 00BF     		nop
 458 00f6 0837     		adds	r7, r7, #8
 459              		.cfi_def_cfa_offset 8
 460 00f8 BD46     		mov	sp, r7
 461              		.cfi_def_cfa_register 13
 462              		@ sp needed
 463 00fa 80BD     		pop	{r7, pc}
 464              	.L25:
 465              		.align	2
 466              	.L24:
 467 00fc 12000000 		.word	usbStarted.8128
 468 0100 14000000 		.word	usbBufCount.8129
 469 0104 00000000 		.word	entry
 470 0108 00000000 		.word	line
 471 010c 00000000 		.word	periodMode
 472 0110 00000000 		.word	flag_KB_string
 473              		.cfi_endproc
 474              	.LFE67:
 475              		.size	handle_usb, .-handle_usb
 476              		.bss
 477              	usbStarted.8128:
 478 0012 00       		.space	1
 479 0013 00       		.align	1
 480              	usbBufCount.8129:
 481 0014 0000     		.space	2
 482              		.text
 483              	.Letext0:
 484              		.file 2 "c:\\program files (x86)\\cypress\\psoc creator\\4.2\\psoc creator\\import\\gnu\\arm\\5.4.
 485              		.file 3 "c:\\program files (x86)\\cypress\\psoc creator\\4.2\\psoc creator\\import\\gnu\\arm\\5.4.
 486              		.file 4 "Generated_Source\\PSoC5/cytypes.h"
 487              		.file 5 "vars.h"
 488              		.file 6 "Generated_Source\\PSoC5/core_cm3.h"